
NBOS.elf:     file format elf64-littleaarch64


Disassembly of section .text:

ffff000000000000 <_start>:
ffff000000000000:	58000640 	ldr	x0, ffff0000000000c8 <_start+0xc8>
ffff000000000004:	d5181000 	msr	sctlr_el1, x0
ffff000000000008:	d2ffffe0 	mov	x0, #0xffff000000000000    	// #-281474976710656
ffff00000000000c:	f0000021 	adrp	x1, ffff000000007000 <pg_tbl_start>
ffff000000000010:	91400422 	add	x2, x1, #0x1, lsl #12
ffff000000000014:	91400443 	add	x3, x2, #0x1, lsl #12
ffff000000000018:	91000024 	add	x4, x1, #0x0
ffff00000000001c:	91000045 	add	x5, x2, #0x0
ffff000000000020:	b2400446 	orr	x6, x2, #0x3
ffff000000000024:	f9000086 	str	x6, [x4]
ffff000000000028:	b2400466 	orr	x6, x3, #0x3
ffff00000000002c:	f90000a6 	str	x6, [x5]
ffff000000000030:	d2a80006 	mov	x6, #0x40000000            	// #1073741824
ffff000000000034:	d2800007 	mov	x7, #0x0                   	// #0
ffff000000000038:	d2800008 	mov	x8, #0x0                   	// #0
ffff00000000003c:	d37df109 	lsl	x9, x8, #3
ffff000000000040:	8b0700ca 	add	x10, x6, x7
ffff000000000044:	d28080ab 	mov	x11, #0x405                 	// #1029
ffff000000000048:	aa0b014a 	orr	x10, x10, x11
ffff00000000004c:	8b09006c 	add	x12, x3, x9
ffff000000000050:	f900018a 	str	x10, [x12]
ffff000000000054:	914800e7 	add	x7, x7, #0x200, lsl #12
ffff000000000058:	91000508 	add	x8, x8, #0x1
ffff00000000005c:	f107f51f 	cmp	x8, #0x1fd
ffff000000000060:	54fffee9 	b.ls	ffff00000000003c <_start+0x3c>
ffff000000000064:	d37df109 	lsl	x9, x8, #3
ffff000000000068:	d2a1200a 	mov	x10, #0x9000000             	// #150994944
ffff00000000006c:	d280802b 	mov	x11, #0x401                 	// #1025
ffff000000000070:	aa0b014a 	orr	x10, x10, x11
ffff000000000074:	8b09006c 	add	x12, x3, x9
ffff000000000078:	f900018a 	str	x10, [x12]
ffff00000000007c:	f0000020 	adrp	x0, ffff000000007000 <pg_tbl_start>
ffff000000000080:	d5182020 	msr	ttbr1_el1, x0
ffff000000000084:	58000260 	ldr	x0, ffff0000000000d0 <_start+0xd0>
ffff000000000088:	d5182040 	msr	tcr_el1, x0
ffff00000000008c:	58000260 	ldr	x0, ffff0000000000d8 <_start+0xd8>
ffff000000000090:	d518a200 	msr	mair_el1, x0
ffff000000000094:	58000260 	ldr	x0, ffff0000000000e0 <_start+0xe0>
ffff000000000098:	d518c000 	msr	vbar_el1, x0
ffff00000000009c:	58000260 	ldr	x0, ffff0000000000e8 <_start+0xe8>
ffff0000000000a0:	9100001f 	mov	sp, x0
ffff0000000000a4:	58000262 	ldr	x2, ffff0000000000f0 <_start+0xf0>
ffff0000000000a8:	5800028a 	ldr	x10, ffff0000000000f8 <_start+0xf8>
ffff0000000000ac:	d2800020 	mov	x0, #0x1                   	// #1
ffff0000000000b0:	d5181000 	msr	sctlr_el1, x0
ffff0000000000b4:	d28014b4 	mov	x20, #0xa5                  	// #165
ffff0000000000b8:	f9000154 	str	x20, [x10]
ffff0000000000bc:	d61f0060 	br	x3
ffff0000000000c0:	d61f0040 	br	x2
ffff0000000000c4:	00000000 	.word	0x00000000
ffff0000000000c8:	30d00800 	.word	0x30d00800
ffff0000000000cc:	00000000 	.word	0x00000000
ffff0000000000d0:	80100010 	.word	0x80100010
ffff0000000000d4:	00000000 	.word	0x00000000
ffff0000000000d8:	00004400 	.word	0x00004400
ffff0000000000dc:	00000000 	.word	0x00000000
ffff0000000000e0:	00001800 	.word	0x00001800
ffff0000000000e4:	ffff0000 	.word	0xffff0000
ffff0000000000e8:	00006000 	.word	0x00006000
ffff0000000000ec:	ffff0000 	.word	0xffff0000
ffff0000000000f0:	0000283c 	.word	0x0000283c
ffff0000000000f4:	ffff0000 	.word	0xffff0000
ffff0000000000f8:	3fc00000 	.word	0x3fc00000
ffff0000000000fc:	ffff0000 	.word	0xffff0000

ffff000000000100 <raw_read_current_el>:
ffff000000000100:	d10043ff 	sub	sp, sp, #0x10
ffff000000000104:	d5384240 	mrs	x0, currentel
ffff000000000108:	b9000fe0 	str	w0, [sp,#12]
ffff00000000010c:	b9400fe0 	ldr	w0, [sp,#12]
ffff000000000110:	910043ff 	add	sp, sp, #0x10
ffff000000000114:	d65f03c0 	ret

ffff000000000118 <get_current_el>:
ffff000000000118:	a9be7bfd 	stp	x29, x30, [sp,#-32]!
ffff00000000011c:	910003fd 	mov	x29, sp
ffff000000000120:	97fffff8 	bl	ffff000000000100 <raw_read_current_el>
ffff000000000124:	b9001fa0 	str	w0, [x29,#28]
ffff000000000128:	b9401fa0 	ldr	w0, [x29,#28]
ffff00000000012c:	53027c00 	lsr	w0, w0, #2
ffff000000000130:	12000400 	and	w0, w0, #0x3
ffff000000000134:	a8c27bfd 	ldp	x29, x30, [sp],#32
ffff000000000138:	d65f03c0 	ret

ffff00000000013c <raw_read_daif>:
ffff00000000013c:	d10043ff 	sub	sp, sp, #0x10
ffff000000000140:	d53b4220 	mrs	x0, daif
ffff000000000144:	b9000fe0 	str	w0, [sp,#12]
ffff000000000148:	b9400fe0 	ldr	w0, [sp,#12]
ffff00000000014c:	910043ff 	add	sp, sp, #0x10
ffff000000000150:	d65f03c0 	ret

ffff000000000154 <raw_write_daif>:
ffff000000000154:	d10043ff 	sub	sp, sp, #0x10
ffff000000000158:	b9000fe0 	str	w0, [sp,#12]
ffff00000000015c:	b9400fe0 	ldr	w0, [sp,#12]
ffff000000000160:	d51b4220 	msr	daif, x0
ffff000000000164:	d503201f 	nop
ffff000000000168:	910043ff 	add	sp, sp, #0x10
ffff00000000016c:	d65f03c0 	ret

ffff000000000170 <enable_debug_exceptions>:
ffff000000000170:	d50348ff 	msr	daifclr, #0x8
ffff000000000174:	d503201f 	nop
ffff000000000178:	d65f03c0 	ret

ffff00000000017c <enable_serror_exceptions>:
ffff00000000017c:	d50344ff 	msr	daifclr, #0x4
ffff000000000180:	d503201f 	nop
ffff000000000184:	d65f03c0 	ret

ffff000000000188 <enable_irq>:
ffff000000000188:	d50342ff 	msr	daifclr, #0x2
ffff00000000018c:	d503201f 	nop
ffff000000000190:	d65f03c0 	ret

ffff000000000194 <enable_fiq>:
ffff000000000194:	d50341ff 	msr	daifclr, #0x1
ffff000000000198:	d503201f 	nop
ffff00000000019c:	d65f03c0 	ret

ffff0000000001a0 <disable_debug_exceptions>:
ffff0000000001a0:	d50348df 	msr	daifset, #0x8
ffff0000000001a4:	d503201f 	nop
ffff0000000001a8:	d65f03c0 	ret

ffff0000000001ac <disable_serror_exceptions>:
ffff0000000001ac:	d50344df 	msr	daifset, #0x4
ffff0000000001b0:	d503201f 	nop
ffff0000000001b4:	d65f03c0 	ret

ffff0000000001b8 <disable_irq>:
ffff0000000001b8:	d50342df 	msr	daifset, #0x2
ffff0000000001bc:	d503201f 	nop
ffff0000000001c0:	d65f03c0 	ret

ffff0000000001c4 <disable_fiq>:
ffff0000000001c4:	d50341df 	msr	daifset, #0x1
ffff0000000001c8:	d503201f 	nop
ffff0000000001cc:	d65f03c0 	ret

ffff0000000001d0 <raw_read_spsr_el1>:
ffff0000000001d0:	d10043ff 	sub	sp, sp, #0x10
ffff0000000001d4:	d5384000 	mrs	x0, spsr_el1
ffff0000000001d8:	b9000fe0 	str	w0, [sp,#12]
ffff0000000001dc:	b9400fe0 	ldr	w0, [sp,#12]
ffff0000000001e0:	910043ff 	add	sp, sp, #0x10
ffff0000000001e4:	d65f03c0 	ret

ffff0000000001e8 <raw_write_spsr_el1>:
ffff0000000001e8:	d10043ff 	sub	sp, sp, #0x10
ffff0000000001ec:	b9000fe0 	str	w0, [sp,#12]
ffff0000000001f0:	b9400fe0 	ldr	w0, [sp,#12]
ffff0000000001f4:	d5184000 	msr	spsr_el1, x0
ffff0000000001f8:	d503201f 	nop
ffff0000000001fc:	910043ff 	add	sp, sp, #0x10
ffff000000000200:	d65f03c0 	ret

ffff000000000204 <raw_read_isr_el1>:
ffff000000000204:	d10043ff 	sub	sp, sp, #0x10
ffff000000000208:	d538c100 	mrs	x0, isr_el1
ffff00000000020c:	b9000fe0 	str	w0, [sp,#12]
ffff000000000210:	b9400fe0 	ldr	w0, [sp,#12]
ffff000000000214:	910043ff 	add	sp, sp, #0x10
ffff000000000218:	d65f03c0 	ret

ffff00000000021c <raw_read_rvbar_el1>:
ffff00000000021c:	d10043ff 	sub	sp, sp, #0x10
ffff000000000220:	d538c020 	mrs	x0, rvbar_el1
ffff000000000224:	f90007e0 	str	x0, [sp,#8]
ffff000000000228:	f94007e0 	ldr	x0, [sp,#8]
ffff00000000022c:	910043ff 	add	sp, sp, #0x10
ffff000000000230:	d65f03c0 	ret

ffff000000000234 <raw_write_rvbar_el1>:
ffff000000000234:	d10043ff 	sub	sp, sp, #0x10
ffff000000000238:	f90007e0 	str	x0, [sp,#8]
ffff00000000023c:	f94007e0 	ldr	x0, [sp,#8]
ffff000000000240:	d518c020 	msr	rvbar_el1, x0
ffff000000000244:	d503201f 	nop
ffff000000000248:	910043ff 	add	sp, sp, #0x10
ffff00000000024c:	d65f03c0 	ret

ffff000000000250 <raw_read_vbar_el1>:
ffff000000000250:	d10043ff 	sub	sp, sp, #0x10
ffff000000000254:	d538c000 	mrs	x0, vbar_el1
ffff000000000258:	f90007e0 	str	x0, [sp,#8]
ffff00000000025c:	f94007e0 	ldr	x0, [sp,#8]
ffff000000000260:	910043ff 	add	sp, sp, #0x10
ffff000000000264:	d65f03c0 	ret

ffff000000000268 <raw_write_vbar_el1>:
ffff000000000268:	d10043ff 	sub	sp, sp, #0x10
ffff00000000026c:	f90007e0 	str	x0, [sp,#8]
ffff000000000270:	f94007e0 	ldr	x0, [sp,#8]
ffff000000000274:	d518c000 	msr	vbar_el1, x0
ffff000000000278:	d503201f 	nop
ffff00000000027c:	910043ff 	add	sp, sp, #0x10
ffff000000000280:	d65f03c0 	ret

ffff000000000284 <raw_read_cntv_ctl>:
ffff000000000284:	d10043ff 	sub	sp, sp, #0x10
ffff000000000288:	d53be320 	mrs	x0, cntv_ctl_el0
ffff00000000028c:	b9000fe0 	str	w0, [sp,#12]
ffff000000000290:	b9400fe0 	ldr	w0, [sp,#12]
ffff000000000294:	910043ff 	add	sp, sp, #0x10
ffff000000000298:	d65f03c0 	ret

ffff00000000029c <disable_cntv>:
ffff00000000029c:	a9be7bfd 	stp	x29, x30, [sp,#-32]!
ffff0000000002a0:	910003fd 	mov	x29, sp
ffff0000000002a4:	97fffff8 	bl	ffff000000000284 <raw_read_cntv_ctl>
ffff0000000002a8:	b9001fa0 	str	w0, [x29,#28]
ffff0000000002ac:	b9401fa0 	ldr	w0, [x29,#28]
ffff0000000002b0:	121f7800 	and	w0, w0, #0xfffffffe
ffff0000000002b4:	b9001fa0 	str	w0, [x29,#28]
ffff0000000002b8:	b9401fa0 	ldr	w0, [x29,#28]
ffff0000000002bc:	d51be320 	msr	cntv_ctl_el0, x0
ffff0000000002c0:	d503201f 	nop
ffff0000000002c4:	a8c27bfd 	ldp	x29, x30, [sp],#32
ffff0000000002c8:	d65f03c0 	ret

ffff0000000002cc <enable_cntv>:
ffff0000000002cc:	a9be7bfd 	stp	x29, x30, [sp,#-32]!
ffff0000000002d0:	910003fd 	mov	x29, sp
ffff0000000002d4:	97ffffec 	bl	ffff000000000284 <raw_read_cntv_ctl>
ffff0000000002d8:	b9001fa0 	str	w0, [x29,#28]
ffff0000000002dc:	b9401fa0 	ldr	w0, [x29,#28]
ffff0000000002e0:	32000000 	orr	w0, w0, #0x1
ffff0000000002e4:	b9001fa0 	str	w0, [x29,#28]
ffff0000000002e8:	b9401fa0 	ldr	w0, [x29,#28]
ffff0000000002ec:	d51be320 	msr	cntv_ctl_el0, x0
ffff0000000002f0:	d503201f 	nop
ffff0000000002f4:	a8c27bfd 	ldp	x29, x30, [sp],#32
ffff0000000002f8:	d65f03c0 	ret

ffff0000000002fc <raw_read_cntfrq_el0>:
ffff0000000002fc:	d10043ff 	sub	sp, sp, #0x10
ffff000000000300:	d53be000 	mrs	x0, cntfrq_el0
ffff000000000304:	b9000fe0 	str	w0, [sp,#12]
ffff000000000308:	b9400fe0 	ldr	w0, [sp,#12]
ffff00000000030c:	910043ff 	add	sp, sp, #0x10
ffff000000000310:	d65f03c0 	ret

ffff000000000314 <raw_write_cntfrq_el0>:
ffff000000000314:	d10043ff 	sub	sp, sp, #0x10
ffff000000000318:	b9000fe0 	str	w0, [sp,#12]
ffff00000000031c:	b9400fe0 	ldr	w0, [sp,#12]
ffff000000000320:	d51be000 	msr	cntfrq_el0, x0
ffff000000000324:	d503201f 	nop
ffff000000000328:	910043ff 	add	sp, sp, #0x10
ffff00000000032c:	d65f03c0 	ret

ffff000000000330 <raw_read_cntvct_el0>:
ffff000000000330:	d10043ff 	sub	sp, sp, #0x10
ffff000000000334:	d53be040 	mrs	x0, cntvct_el0
ffff000000000338:	f90007e0 	str	x0, [sp,#8]
ffff00000000033c:	f94007e0 	ldr	x0, [sp,#8]
ffff000000000340:	910043ff 	add	sp, sp, #0x10
ffff000000000344:	d65f03c0 	ret

ffff000000000348 <raw_read_cntv_cval_el0>:
ffff000000000348:	d10043ff 	sub	sp, sp, #0x10
ffff00000000034c:	d53be340 	mrs	x0, cntv_cval_el0
ffff000000000350:	f90007e0 	str	x0, [sp,#8]
ffff000000000354:	f94007e0 	ldr	x0, [sp,#8]
ffff000000000358:	910043ff 	add	sp, sp, #0x10
ffff00000000035c:	d65f03c0 	ret

ffff000000000360 <raw_write_cntv_cval_el0>:
ffff000000000360:	d10043ff 	sub	sp, sp, #0x10
ffff000000000364:	f90007e0 	str	x0, [sp,#8]
ffff000000000368:	f94007e0 	ldr	x0, [sp,#8]
ffff00000000036c:	d51be340 	msr	cntv_cval_el0, x0
ffff000000000370:	d503201f 	nop
ffff000000000374:	910043ff 	add	sp, sp, #0x10
ffff000000000378:	d65f03c0 	ret

ffff00000000037c <init_gicc>:
ffff00000000037c:	d10043ff 	sub	sp, sp, #0x10
ffff000000000380:	d2a10020 	mov	x0, #0x8010000             	// #134283264
ffff000000000384:	b900001f 	str	wzr, [x0]
ffff000000000388:	d2800080 	mov	x0, #0x4                   	// #4
ffff00000000038c:	f2a10020 	movk	x0, #0x801, lsl #16
ffff000000000390:	52801fe1 	mov	w1, #0xff                  	// #255
ffff000000000394:	b9000001 	str	w1, [x0]
ffff000000000398:	d2800100 	mov	x0, #0x8                   	// #8
ffff00000000039c:	f2a10020 	movk	x0, #0x801, lsl #16
ffff0000000003a0:	b900001f 	str	wzr, [x0]
ffff0000000003a4:	d2800180 	mov	x0, #0xc                   	// #12
ffff0000000003a8:	f2a10020 	movk	x0, #0x801, lsl #16
ffff0000000003ac:	b9400000 	ldr	w0, [x0]
ffff0000000003b0:	12002400 	and	w0, w0, #0x3ff
ffff0000000003b4:	b9000fe0 	str	w0, [sp,#12]
ffff0000000003b8:	1400000c 	b	ffff0000000003e8 <init_gicc+0x6c>
ffff0000000003bc:	d2800200 	mov	x0, #0x10                  	// #16
ffff0000000003c0:	f2a10020 	movk	x0, #0x801, lsl #16
ffff0000000003c4:	d2800181 	mov	x1, #0xc                   	// #12
ffff0000000003c8:	f2a10021 	movk	x1, #0x801, lsl #16
ffff0000000003cc:	b9400021 	ldr	w1, [x1]
ffff0000000003d0:	b9000001 	str	w1, [x0]
ffff0000000003d4:	d2800180 	mov	x0, #0xc                   	// #12
ffff0000000003d8:	f2a10020 	movk	x0, #0x801, lsl #16
ffff0000000003dc:	b9400000 	ldr	w0, [x0]
ffff0000000003e0:	12002400 	and	w0, w0, #0x3ff
ffff0000000003e4:	b9000fe0 	str	w0, [sp,#12]
ffff0000000003e8:	b9400fe0 	ldr	w0, [sp,#12]
ffff0000000003ec:	710ffc1f 	cmp	w0, #0x3ff
ffff0000000003f0:	54fffe61 	b.ne	ffff0000000003bc <init_gicc+0x40>
ffff0000000003f4:	d2a10020 	mov	x0, #0x8010000             	// #134283264
ffff0000000003f8:	52800021 	mov	w1, #0x1                   	// #1
ffff0000000003fc:	b9000001 	str	w1, [x0]
ffff000000000400:	d503201f 	nop
ffff000000000404:	910043ff 	add	sp, sp, #0x10
ffff000000000408:	d65f03c0 	ret

ffff00000000040c <init_gicd>:
ffff00000000040c:	d10043ff 	sub	sp, sp, #0x10
ffff000000000410:	d2a10000 	mov	x0, #0x8000000             	// #134217728
ffff000000000414:	b900001f 	str	wzr, [x0]
ffff000000000418:	52800040 	mov	w0, #0x2                   	// #2
ffff00000000041c:	b9000be0 	str	w0, [sp,#8]
ffff000000000420:	b9000fff 	str	wzr, [sp,#12]
ffff000000000424:	1400000d 	b	ffff000000000458 <init_gicd+0x4c>
ffff000000000428:	b9400fe1 	ldr	w1, [sp,#12]
ffff00000000042c:	52800c00 	mov	w0, #0x60                  	// #96
ffff000000000430:	72a04000 	movk	w0, #0x200, lsl #16
ffff000000000434:	0b000020 	add	w0, w1, w0
ffff000000000438:	531e7400 	lsl	w0, w0, #2
ffff00000000043c:	93407c00 	sxtw	x0, w0
ffff000000000440:	aa0003e1 	mov	x1, x0
ffff000000000444:	12800000 	mov	w0, #0xffffffff            	// #-1
ffff000000000448:	b9000020 	str	w0, [x1]
ffff00000000044c:	b9400fe0 	ldr	w0, [sp,#12]
ffff000000000450:	11000400 	add	w0, w0, #0x1
ffff000000000454:	b9000fe0 	str	w0, [sp,#12]
ffff000000000458:	b9400be1 	ldr	w1, [sp,#8]
ffff00000000045c:	b9400fe0 	ldr	w0, [sp,#12]
ffff000000000460:	6b00003f 	cmp	w1, w0
ffff000000000464:	54fffe2c 	b.gt	ffff000000000428 <init_gicd+0x1c>
ffff000000000468:	52800040 	mov	w0, #0x2                   	// #2
ffff00000000046c:	b9000be0 	str	w0, [sp,#8]
ffff000000000470:	b9000fff 	str	wzr, [sp,#12]
ffff000000000474:	1400000d 	b	ffff0000000004a8 <init_gicd+0x9c>
ffff000000000478:	b9400fe1 	ldr	w1, [sp,#12]
ffff00000000047c:	52801400 	mov	w0, #0xa0                  	// #160
ffff000000000480:	72a04000 	movk	w0, #0x200, lsl #16
ffff000000000484:	0b000020 	add	w0, w1, w0
ffff000000000488:	531e7400 	lsl	w0, w0, #2
ffff00000000048c:	93407c00 	sxtw	x0, w0
ffff000000000490:	aa0003e1 	mov	x1, x0
ffff000000000494:	12800000 	mov	w0, #0xffffffff            	// #-1
ffff000000000498:	b9000020 	str	w0, [x1]
ffff00000000049c:	b9400fe0 	ldr	w0, [sp,#12]
ffff0000000004a0:	11000400 	add	w0, w0, #0x1
ffff0000000004a4:	b9000fe0 	str	w0, [sp,#12]
ffff0000000004a8:	b9400be1 	ldr	w1, [sp,#8]
ffff0000000004ac:	b9400fe0 	ldr	w0, [sp,#12]
ffff0000000004b0:	6b00003f 	cmp	w1, w0
ffff0000000004b4:	54fffe2c 	b.gt	ffff000000000478 <init_gicd+0x6c>
ffff0000000004b8:	52800200 	mov	w0, #0x10                  	// #16
ffff0000000004bc:	b9000be0 	str	w0, [sp,#8]
ffff0000000004c0:	b9000fff 	str	wzr, [sp,#12]
ffff0000000004c4:	1400000d 	b	ffff0000000004f8 <init_gicd+0xec>
ffff0000000004c8:	b9400fe1 	ldr	w1, [sp,#12]
ffff0000000004cc:	52802000 	mov	w0, #0x100                 	// #256
ffff0000000004d0:	72a04000 	movk	w0, #0x200, lsl #16
ffff0000000004d4:	0b000020 	add	w0, w1, w0
ffff0000000004d8:	531e7400 	lsl	w0, w0, #2
ffff0000000004dc:	93407c00 	sxtw	x0, w0
ffff0000000004e0:	aa0003e1 	mov	x1, x0
ffff0000000004e4:	12800000 	mov	w0, #0xffffffff            	// #-1
ffff0000000004e8:	b9000020 	str	w0, [x1]
ffff0000000004ec:	b9400fe0 	ldr	w0, [sp,#12]
ffff0000000004f0:	11000400 	add	w0, w0, #0x1
ffff0000000004f4:	b9000fe0 	str	w0, [sp,#12]
ffff0000000004f8:	b9400be1 	ldr	w1, [sp,#8]
ffff0000000004fc:	b9400fe0 	ldr	w0, [sp,#12]
ffff000000000500:	6b00003f 	cmp	w1, w0
ffff000000000504:	54fffe2c 	b.gt	ffff0000000004c8 <init_gicd+0xbc>
ffff000000000508:	52800100 	mov	w0, #0x8                   	// #8
ffff00000000050c:	b9000fe0 	str	w0, [sp,#12]
ffff000000000510:	1400000c 	b	ffff000000000540 <init_gicd+0x134>
ffff000000000514:	b9400fe1 	ldr	w1, [sp,#12]
ffff000000000518:	320783e0 	mov	w0, #0x2000200             	// #33554944
ffff00000000051c:	0b000020 	add	w0, w1, w0
ffff000000000520:	531e7400 	lsl	w0, w0, #2
ffff000000000524:	93407c00 	sxtw	x0, w0
ffff000000000528:	aa0003e1 	mov	x1, x0
ffff00000000052c:	3200c3e0 	mov	w0, #0x1010101             	// #16843009
ffff000000000530:	b9000020 	str	w0, [x1]
ffff000000000534:	b9400fe0 	ldr	w0, [sp,#12]
ffff000000000538:	11000400 	add	w0, w0, #0x1
ffff00000000053c:	b9000fe0 	str	w0, [sp,#12]
ffff000000000540:	b9400fe0 	ldr	w0, [sp,#12]
ffff000000000544:	71003c1f 	cmp	w0, #0xf
ffff000000000548:	54fffe6d 	b.le	ffff000000000514 <init_gicd+0x108>
ffff00000000054c:	52800020 	mov	w0, #0x1                   	// #1
ffff000000000550:	b9000fe0 	str	w0, [sp,#12]
ffff000000000554:	1400000b 	b	ffff000000000580 <init_gicd+0x174>
ffff000000000558:	b9400fe1 	ldr	w1, [sp,#12]
ffff00000000055c:	52806000 	mov	w0, #0x300                 	// #768
ffff000000000560:	72a04000 	movk	w0, #0x200, lsl #16
ffff000000000564:	0b000020 	add	w0, w1, w0
ffff000000000568:	531e7400 	lsl	w0, w0, #2
ffff00000000056c:	93407c00 	sxtw	x0, w0
ffff000000000570:	b900001f 	str	wzr, [x0]
ffff000000000574:	b9400fe0 	ldr	w0, [sp,#12]
ffff000000000578:	11000400 	add	w0, w0, #0x1
ffff00000000057c:	b9000fe0 	str	w0, [sp,#12]
ffff000000000580:	b9400fe0 	ldr	w0, [sp,#12]
ffff000000000584:	71000c1f 	cmp	w0, #0x3
ffff000000000588:	54fffe8d 	b.le	ffff000000000558 <init_gicd+0x14c>
ffff00000000058c:	d2a10000 	mov	x0, #0x8000000             	// #134217728
ffff000000000590:	52800021 	mov	w1, #0x1                   	// #1
ffff000000000594:	b9000001 	str	w1, [x0]
ffff000000000598:	d503201f 	nop
ffff00000000059c:	910043ff 	add	sp, sp, #0x10
ffff0000000005a0:	d65f03c0 	ret

ffff0000000005a4 <gicd_disable_int>:
ffff0000000005a4:	d10043ff 	sub	sp, sp, #0x10
ffff0000000005a8:	b9000fe0 	str	w0, [sp,#12]
ffff0000000005ac:	b9400fe0 	ldr	w0, [sp,#12]
ffff0000000005b0:	11007c01 	add	w1, w0, #0x1f
ffff0000000005b4:	7100001f 	cmp	w0, #0x0
ffff0000000005b8:	1a80b020 	csel	w0, w1, w0, lt
ffff0000000005bc:	13057c00 	asr	w0, w0, #5
ffff0000000005c0:	2a0003e1 	mov	w1, w0
ffff0000000005c4:	52800c00 	mov	w0, #0x60                  	// #96
ffff0000000005c8:	72a04000 	movk	w0, #0x200, lsl #16
ffff0000000005cc:	0b000020 	add	w0, w1, w0
ffff0000000005d0:	531e7400 	lsl	w0, w0, #2
ffff0000000005d4:	93407c00 	sxtw	x0, w0
ffff0000000005d8:	aa0003e2 	mov	x2, x0
ffff0000000005dc:	b9400fe0 	ldr	w0, [sp,#12]
ffff0000000005e0:	6b0003e1 	negs	w1, w0
ffff0000000005e4:	12001000 	and	w0, w0, #0x1f
ffff0000000005e8:	12001021 	and	w1, w1, #0x1f
ffff0000000005ec:	5a814400 	csneg	w0, w0, w1, mi
ffff0000000005f0:	52800021 	mov	w1, #0x1                   	// #1
ffff0000000005f4:	1ac02020 	lsl	w0, w1, w0
ffff0000000005f8:	b9000040 	str	w0, [x2]
ffff0000000005fc:	d503201f 	nop
ffff000000000600:	910043ff 	add	sp, sp, #0x10
ffff000000000604:	d65f03c0 	ret

ffff000000000608 <gicd_enable_int>:
ffff000000000608:	d10043ff 	sub	sp, sp, #0x10
ffff00000000060c:	b9000fe0 	str	w0, [sp,#12]
ffff000000000610:	b9400fe0 	ldr	w0, [sp,#12]
ffff000000000614:	11007c01 	add	w1, w0, #0x1f
ffff000000000618:	7100001f 	cmp	w0, #0x0
ffff00000000061c:	1a80b020 	csel	w0, w1, w0, lt
ffff000000000620:	13057c00 	asr	w0, w0, #5
ffff000000000624:	2a0003e1 	mov	w1, w0
ffff000000000628:	52800800 	mov	w0, #0x40                  	// #64
ffff00000000062c:	72a04000 	movk	w0, #0x200, lsl #16
ffff000000000630:	0b000020 	add	w0, w1, w0
ffff000000000634:	531e7400 	lsl	w0, w0, #2
ffff000000000638:	93407c00 	sxtw	x0, w0
ffff00000000063c:	aa0003e2 	mov	x2, x0
ffff000000000640:	b9400fe0 	ldr	w0, [sp,#12]
ffff000000000644:	6b0003e1 	negs	w1, w0
ffff000000000648:	12001000 	and	w0, w0, #0x1f
ffff00000000064c:	12001021 	and	w1, w1, #0x1f
ffff000000000650:	5a814400 	csneg	w0, w0, w1, mi
ffff000000000654:	52800021 	mov	w1, #0x1                   	// #1
ffff000000000658:	1ac02020 	lsl	w0, w1, w0
ffff00000000065c:	b9000040 	str	w0, [x2]
ffff000000000660:	d503201f 	nop
ffff000000000664:	910043ff 	add	sp, sp, #0x10
ffff000000000668:	d65f03c0 	ret

ffff00000000066c <gicd_clear_pending>:
ffff00000000066c:	d10043ff 	sub	sp, sp, #0x10
ffff000000000670:	b9000fe0 	str	w0, [sp,#12]
ffff000000000674:	b9400fe0 	ldr	w0, [sp,#12]
ffff000000000678:	11007c01 	add	w1, w0, #0x1f
ffff00000000067c:	7100001f 	cmp	w0, #0x0
ffff000000000680:	1a80b020 	csel	w0, w1, w0, lt
ffff000000000684:	13057c00 	asr	w0, w0, #5
ffff000000000688:	2a0003e1 	mov	w1, w0
ffff00000000068c:	52801400 	mov	w0, #0xa0                  	// #160
ffff000000000690:	72a04000 	movk	w0, #0x200, lsl #16
ffff000000000694:	0b000020 	add	w0, w1, w0
ffff000000000698:	531e7400 	lsl	w0, w0, #2
ffff00000000069c:	93407c00 	sxtw	x0, w0
ffff0000000006a0:	aa0003e2 	mov	x2, x0
ffff0000000006a4:	b9400fe0 	ldr	w0, [sp,#12]
ffff0000000006a8:	6b0003e1 	negs	w1, w0
ffff0000000006ac:	12001000 	and	w0, w0, #0x1f
ffff0000000006b0:	12001021 	and	w1, w1, #0x1f
ffff0000000006b4:	5a814400 	csneg	w0, w0, w1, mi
ffff0000000006b8:	52800021 	mov	w1, #0x1                   	// #1
ffff0000000006bc:	1ac02020 	lsl	w0, w1, w0
ffff0000000006c0:	b9000040 	str	w0, [x2]
ffff0000000006c4:	d503201f 	nop
ffff0000000006c8:	910043ff 	add	sp, sp, #0x10
ffff0000000006cc:	d65f03c0 	ret

ffff0000000006d0 <gicd_probe_pending>:
ffff0000000006d0:	d10083ff 	sub	sp, sp, #0x20
ffff0000000006d4:	b9000fe0 	str	w0, [sp,#12]
ffff0000000006d8:	b9400fe0 	ldr	w0, [sp,#12]
ffff0000000006dc:	11007c01 	add	w1, w0, #0x1f
ffff0000000006e0:	7100001f 	cmp	w0, #0x0
ffff0000000006e4:	1a80b020 	csel	w0, w1, w0, lt
ffff0000000006e8:	13057c00 	asr	w0, w0, #5
ffff0000000006ec:	2a0003e1 	mov	w1, w0
ffff0000000006f0:	52801000 	mov	w0, #0x80                  	// #128
ffff0000000006f4:	72a04000 	movk	w0, #0x200, lsl #16
ffff0000000006f8:	0b000020 	add	w0, w1, w0
ffff0000000006fc:	531e7400 	lsl	w0, w0, #2
ffff000000000700:	93407c00 	sxtw	x0, w0
ffff000000000704:	b9400001 	ldr	w1, [x0]
ffff000000000708:	b9400fe0 	ldr	w0, [sp,#12]
ffff00000000070c:	6b0003e2 	negs	w2, w0
ffff000000000710:	12001000 	and	w0, w0, #0x1f
ffff000000000714:	12001042 	and	w2, w2, #0x1f
ffff000000000718:	5a824400 	csneg	w0, w0, w2, mi
ffff00000000071c:	52800022 	mov	w2, #0x1                   	// #1
ffff000000000720:	1ac02040 	lsl	w0, w2, w0
ffff000000000724:	0a000020 	and	w0, w1, w0
ffff000000000728:	b9001fe0 	str	w0, [sp,#28]
ffff00000000072c:	b9401fe0 	ldr	w0, [sp,#28]
ffff000000000730:	7100001f 	cmp	w0, #0x0
ffff000000000734:	1a9f07e0 	cset	w0, ne
ffff000000000738:	53001c00 	uxtb	w0, w0
ffff00000000073c:	910083ff 	add	sp, sp, #0x20
ffff000000000740:	d65f03c0 	ret

ffff000000000744 <gicd_set_target>:
ffff000000000744:	d10083ff 	sub	sp, sp, #0x20
ffff000000000748:	b9000fe0 	str	w0, [sp,#12]
ffff00000000074c:	b9000be1 	str	w1, [sp,#8]
ffff000000000750:	b9400fe0 	ldr	w0, [sp,#12]
ffff000000000754:	6b0003e1 	negs	w1, w0
ffff000000000758:	12000400 	and	w0, w0, #0x3
ffff00000000075c:	12000421 	and	w1, w1, #0x3
ffff000000000760:	5a814400 	csneg	w0, w0, w1, mi
ffff000000000764:	531d7000 	lsl	w0, w0, #3
ffff000000000768:	b9001fe0 	str	w0, [sp,#28]
ffff00000000076c:	b9400fe0 	ldr	w0, [sp,#12]
ffff000000000770:	11000c01 	add	w1, w0, #0x3
ffff000000000774:	7100001f 	cmp	w0, #0x0
ffff000000000778:	1a80b020 	csel	w0, w1, w0, lt
ffff00000000077c:	13027c00 	asr	w0, w0, #2
ffff000000000780:	2a0003e1 	mov	w1, w0
ffff000000000784:	320783e0 	mov	w0, #0x2000200             	// #33554944
ffff000000000788:	0b000020 	add	w0, w1, w0
ffff00000000078c:	531e7400 	lsl	w0, w0, #2
ffff000000000790:	93407c00 	sxtw	x0, w0
ffff000000000794:	b9400000 	ldr	w0, [x0]
ffff000000000798:	b9001be0 	str	w0, [sp,#24]
ffff00000000079c:	b9401fe0 	ldr	w0, [sp,#28]
ffff0000000007a0:	52801fe1 	mov	w1, #0xff                  	// #255
ffff0000000007a4:	1ac02020 	lsl	w0, w1, w0
ffff0000000007a8:	2a2003e0 	mvn	w0, w0
ffff0000000007ac:	b9401be1 	ldr	w1, [sp,#24]
ffff0000000007b0:	0a000020 	and	w0, w1, w0
ffff0000000007b4:	b9001be0 	str	w0, [sp,#24]
ffff0000000007b8:	b9401fe0 	ldr	w0, [sp,#28]
ffff0000000007bc:	b9400be1 	ldr	w1, [sp,#8]
ffff0000000007c0:	1ac02020 	lsl	w0, w1, w0
ffff0000000007c4:	b9401be1 	ldr	w1, [sp,#24]
ffff0000000007c8:	2a000020 	orr	w0, w1, w0
ffff0000000007cc:	b9001be0 	str	w0, [sp,#24]
ffff0000000007d0:	b9400fe0 	ldr	w0, [sp,#12]
ffff0000000007d4:	11000c01 	add	w1, w0, #0x3
ffff0000000007d8:	7100001f 	cmp	w0, #0x0
ffff0000000007dc:	1a80b020 	csel	w0, w1, w0, lt
ffff0000000007e0:	13027c00 	asr	w0, w0, #2
ffff0000000007e4:	2a0003e1 	mov	w1, w0
ffff0000000007e8:	320783e0 	mov	w0, #0x2000200             	// #33554944
ffff0000000007ec:	0b000020 	add	w0, w1, w0
ffff0000000007f0:	531e7400 	lsl	w0, w0, #2
ffff0000000007f4:	93407c00 	sxtw	x0, w0
ffff0000000007f8:	aa0003e1 	mov	x1, x0
ffff0000000007fc:	b9401be0 	ldr	w0, [sp,#24]
ffff000000000800:	b9000020 	str	w0, [x1]
ffff000000000804:	d503201f 	nop
ffff000000000808:	910083ff 	add	sp, sp, #0x20
ffff00000000080c:	d65f03c0 	ret

ffff000000000810 <gicd_set_priority>:
ffff000000000810:	d10083ff 	sub	sp, sp, #0x20
ffff000000000814:	b9000fe0 	str	w0, [sp,#12]
ffff000000000818:	b9000be1 	str	w1, [sp,#8]
ffff00000000081c:	b9400fe0 	ldr	w0, [sp,#12]
ffff000000000820:	6b0003e1 	negs	w1, w0
ffff000000000824:	12000400 	and	w0, w0, #0x3
ffff000000000828:	12000421 	and	w1, w1, #0x3
ffff00000000082c:	5a814400 	csneg	w0, w0, w1, mi
ffff000000000830:	531d7000 	lsl	w0, w0, #3
ffff000000000834:	b9001fe0 	str	w0, [sp,#28]
ffff000000000838:	b9400fe0 	ldr	w0, [sp,#12]
ffff00000000083c:	11000c01 	add	w1, w0, #0x3
ffff000000000840:	7100001f 	cmp	w0, #0x0
ffff000000000844:	1a80b020 	csel	w0, w1, w0, lt
ffff000000000848:	13027c00 	asr	w0, w0, #2
ffff00000000084c:	2a0003e1 	mov	w1, w0
ffff000000000850:	52802000 	mov	w0, #0x100                 	// #256
ffff000000000854:	72a04000 	movk	w0, #0x200, lsl #16
ffff000000000858:	0b000020 	add	w0, w1, w0
ffff00000000085c:	531e7400 	lsl	w0, w0, #2
ffff000000000860:	93407c00 	sxtw	x0, w0
ffff000000000864:	b9400000 	ldr	w0, [x0]
ffff000000000868:	b9001be0 	str	w0, [sp,#24]
ffff00000000086c:	b9401fe0 	ldr	w0, [sp,#28]
ffff000000000870:	52801fe1 	mov	w1, #0xff                  	// #255
ffff000000000874:	1ac02020 	lsl	w0, w1, w0
ffff000000000878:	2a2003e0 	mvn	w0, w0
ffff00000000087c:	b9401be1 	ldr	w1, [sp,#24]
ffff000000000880:	0a000020 	and	w0, w1, w0
ffff000000000884:	b9001be0 	str	w0, [sp,#24]
ffff000000000888:	b9401fe0 	ldr	w0, [sp,#28]
ffff00000000088c:	b9400be1 	ldr	w1, [sp,#8]
ffff000000000890:	1ac02020 	lsl	w0, w1, w0
ffff000000000894:	b9401be1 	ldr	w1, [sp,#24]
ffff000000000898:	2a000020 	orr	w0, w1, w0
ffff00000000089c:	b9001be0 	str	w0, [sp,#24]
ffff0000000008a0:	b9400fe0 	ldr	w0, [sp,#12]
ffff0000000008a4:	11000c01 	add	w1, w0, #0x3
ffff0000000008a8:	7100001f 	cmp	w0, #0x0
ffff0000000008ac:	1a80b020 	csel	w0, w1, w0, lt
ffff0000000008b0:	13027c00 	asr	w0, w0, #2
ffff0000000008b4:	2a0003e1 	mov	w1, w0
ffff0000000008b8:	52802000 	mov	w0, #0x100                 	// #256
ffff0000000008bc:	72a04000 	movk	w0, #0x200, lsl #16
ffff0000000008c0:	0b000020 	add	w0, w1, w0
ffff0000000008c4:	531e7400 	lsl	w0, w0, #2
ffff0000000008c8:	93407c00 	sxtw	x0, w0
ffff0000000008cc:	aa0003e1 	mov	x1, x0
ffff0000000008d0:	b9401be0 	ldr	w0, [sp,#24]
ffff0000000008d4:	b9000020 	str	w0, [x1]
ffff0000000008d8:	d503201f 	nop
ffff0000000008dc:	910083ff 	add	sp, sp, #0x20
ffff0000000008e0:	d65f03c0 	ret

ffff0000000008e4 <gicd_config>:
ffff0000000008e4:	d10083ff 	sub	sp, sp, #0x20
ffff0000000008e8:	b9000fe0 	str	w0, [sp,#12]
ffff0000000008ec:	b9000be1 	str	w1, [sp,#8]
ffff0000000008f0:	b9400fe0 	ldr	w0, [sp,#12]
ffff0000000008f4:	6b0003e1 	negs	w1, w0
ffff0000000008f8:	12000c00 	and	w0, w0, #0xf
ffff0000000008fc:	12000c21 	and	w1, w1, #0xf
ffff000000000900:	5a814400 	csneg	w0, w0, w1, mi
ffff000000000904:	531f7800 	lsl	w0, w0, #1
ffff000000000908:	b9001fe0 	str	w0, [sp,#28]
ffff00000000090c:	b9400fe0 	ldr	w0, [sp,#12]
ffff000000000910:	11003c01 	add	w1, w0, #0xf
ffff000000000914:	7100001f 	cmp	w0, #0x0
ffff000000000918:	1a80b020 	csel	w0, w1, w0, lt
ffff00000000091c:	13047c00 	asr	w0, w0, #4
ffff000000000920:	2a0003e1 	mov	w1, w0
ffff000000000924:	52806000 	mov	w0, #0x300                 	// #768
ffff000000000928:	72a04000 	movk	w0, #0x200, lsl #16
ffff00000000092c:	0b000020 	add	w0, w1, w0
ffff000000000930:	531e7400 	lsl	w0, w0, #2
ffff000000000934:	93407c00 	sxtw	x0, w0
ffff000000000938:	b9400000 	ldr	w0, [x0]
ffff00000000093c:	b9001be0 	str	w0, [sp,#24]
ffff000000000940:	b9401fe0 	ldr	w0, [sp,#28]
ffff000000000944:	52800061 	mov	w1, #0x3                   	// #3
ffff000000000948:	1ac02020 	lsl	w0, w1, w0
ffff00000000094c:	2a2003e0 	mvn	w0, w0
ffff000000000950:	b9401be1 	ldr	w1, [sp,#24]
ffff000000000954:	0a000020 	and	w0, w1, w0
ffff000000000958:	b9001be0 	str	w0, [sp,#24]
ffff00000000095c:	b9401fe0 	ldr	w0, [sp,#28]
ffff000000000960:	b9400be1 	ldr	w1, [sp,#8]
ffff000000000964:	1ac02020 	lsl	w0, w1, w0
ffff000000000968:	b9401be1 	ldr	w1, [sp,#24]
ffff00000000096c:	2a000020 	orr	w0, w1, w0
ffff000000000970:	b9001be0 	str	w0, [sp,#24]
ffff000000000974:	b9400fe0 	ldr	w0, [sp,#12]
ffff000000000978:	11003c01 	add	w1, w0, #0xf
ffff00000000097c:	7100001f 	cmp	w0, #0x0
ffff000000000980:	1a80b020 	csel	w0, w1, w0, lt
ffff000000000984:	13047c00 	asr	w0, w0, #4
ffff000000000988:	2a0003e1 	mov	w1, w0
ffff00000000098c:	52806000 	mov	w0, #0x300                 	// #768
ffff000000000990:	72a04000 	movk	w0, #0x200, lsl #16
ffff000000000994:	0b000020 	add	w0, w1, w0
ffff000000000998:	531e7400 	lsl	w0, w0, #2
ffff00000000099c:	93407c00 	sxtw	x0, w0
ffff0000000009a0:	aa0003e1 	mov	x1, x0
ffff0000000009a4:	b9401be0 	ldr	w0, [sp,#24]
ffff0000000009a8:	b9000020 	str	w0, [x1]
ffff0000000009ac:	d503201f 	nop
ffff0000000009b0:	910083ff 	add	sp, sp, #0x20
ffff0000000009b4:	d65f03c0 	ret

ffff0000000009b8 <gic_v3_eoi>:
ffff0000000009b8:	a9be7bfd 	stp	x29, x30, [sp,#-32]!
ffff0000000009bc:	910003fd 	mov	x29, sp
ffff0000000009c0:	b9001fa0 	str	w0, [x29,#28]
ffff0000000009c4:	b9401fa0 	ldr	w0, [x29,#28]
ffff0000000009c8:	97ffff29 	bl	ffff00000000066c <gicd_clear_pending>
ffff0000000009cc:	d503201f 	nop
ffff0000000009d0:	a8c27bfd 	ldp	x29, x30, [sp],#32
ffff0000000009d4:	d65f03c0 	ret

ffff0000000009d8 <gic_v3_initialize>:
ffff0000000009d8:	a9bf7bfd 	stp	x29, x30, [sp,#-16]!
ffff0000000009dc:	910003fd 	mov	x29, sp
ffff0000000009e0:	97fffe8b 	bl	ffff00000000040c <init_gicd>
ffff0000000009e4:	97fffe66 	bl	ffff00000000037c <init_gicc>
ffff0000000009e8:	52800041 	mov	w1, #0x2                   	// #2
ffff0000000009ec:	52800360 	mov	w0, #0x1b                  	// #27
ffff0000000009f0:	97ffffbd 	bl	ffff0000000008e4 <gicd_config>
ffff0000000009f4:	52800001 	mov	w1, #0x0                   	// #0
ffff0000000009f8:	52800360 	mov	w0, #0x1b                  	// #27
ffff0000000009fc:	97ffff85 	bl	ffff000000000810 <gicd_set_priority>
ffff000000000a00:	52800021 	mov	w1, #0x1                   	// #1
ffff000000000a04:	52800360 	mov	w0, #0x1b                  	// #27
ffff000000000a08:	97ffff4f 	bl	ffff000000000744 <gicd_set_target>
ffff000000000a0c:	52800360 	mov	w0, #0x1b                  	// #27
ffff000000000a10:	97ffff17 	bl	ffff00000000066c <gicd_clear_pending>
ffff000000000a14:	52800360 	mov	w0, #0x1b                  	// #27
ffff000000000a18:	97fffefc 	bl	ffff000000000608 <gicd_enable_int>
ffff000000000a1c:	d503201f 	nop
ffff000000000a20:	a8c17bfd 	ldp	x29, x30, [sp],#16
ffff000000000a24:	d65f03c0 	ret

ffff000000000a28 <gic_v3_find_pending_irq>:
ffff000000000a28:	a9bd7bfd 	stp	x29, x30, [sp,#-48]!
ffff000000000a2c:	910003fd 	mov	x29, sp
ffff000000000a30:	f9000fa0 	str	x0, [x29,#24]
ffff000000000a34:	b9002bbf 	str	wzr, [x29,#40]
ffff000000000a38:	1400000e 	b	ffff000000000a70 <gic_v3_find_pending_irq+0x48>
ffff000000000a3c:	b9402ba0 	ldr	w0, [x29,#40]
ffff000000000a40:	97ffff24 	bl	ffff0000000006d0 <gicd_probe_pending>
ffff000000000a44:	7100001f 	cmp	w0, #0x0
ffff000000000a48:	540000e0 	b.eq	ffff000000000a64 <gic_v3_find_pending_irq+0x3c>
ffff000000000a4c:	52800020 	mov	w0, #0x1                   	// #1
ffff000000000a50:	b9002fa0 	str	w0, [x29,#44]
ffff000000000a54:	f9400fa0 	ldr	x0, [x29,#24]
ffff000000000a58:	b9402ba1 	ldr	w1, [x29,#40]
ffff000000000a5c:	b9000001 	str	w1, [x0]
ffff000000000a60:	14000008 	b	ffff000000000a80 <gic_v3_find_pending_irq+0x58>
ffff000000000a64:	b9402ba0 	ldr	w0, [x29,#40]
ffff000000000a68:	11000400 	add	w0, w0, #0x1
ffff000000000a6c:	b9002ba0 	str	w0, [x29,#40]
ffff000000000a70:	b9402ba0 	ldr	w0, [x29,#40]
ffff000000000a74:	7100fc1f 	cmp	w0, #0x3f
ffff000000000a78:	54fffe2d 	b.le	ffff000000000a3c <gic_v3_find_pending_irq+0x14>
ffff000000000a7c:	b9002fbf 	str	wzr, [x29,#44]
ffff000000000a80:	b9402fa0 	ldr	w0, [x29,#44]
ffff000000000a84:	a8c37bfd 	ldp	x29, x30, [sp],#48
ffff000000000a88:	d65f03c0 	ret

ffff000000000a8c <timer_handler>:
ffff000000000a8c:	a9be7bfd 	stp	x29, x30, [sp,#-32]!
ffff000000000a90:	910003fd 	mov	x29, sp
ffff000000000a94:	d0000020 	adrp	x0, ffff000000006000 <__init_stack_top>
ffff000000000a98:	91000000 	add	x0, x0, #0x0
ffff000000000a9c:	94000d07 	bl	ffff000000003eb8 <tfp_printf>
ffff000000000aa0:	97fffdff 	bl	ffff00000000029c <disable_cntv>
ffff000000000aa4:	52800360 	mov	w0, #0x1b                  	// #27
ffff000000000aa8:	97fffef1 	bl	ffff00000000066c <gicd_clear_pending>
ffff000000000aac:	97fffe21 	bl	ffff000000000330 <raw_read_cntvct_el0>
ffff000000000ab0:	f9000fa0 	str	x0, [x29,#24]
ffff000000000ab4:	d0000040 	adrp	x0, ffff00000000a000 <pg_tbl_end>
ffff000000000ab8:	91000000 	add	x0, x0, #0x0
ffff000000000abc:	f9400001 	ldr	x1, [x0]
ffff000000000ac0:	f9400fa0 	ldr	x0, [x29,#24]
ffff000000000ac4:	8b000020 	add	x0, x1, x0
ffff000000000ac8:	97fffe26 	bl	ffff000000000360 <raw_write_cntv_cval_el0>
ffff000000000acc:	97fffe00 	bl	ffff0000000002cc <enable_cntv>
ffff000000000ad0:	940007d4 	bl	ffff000000002a20 <scheduler_tick>
ffff000000000ad4:	d503201f 	nop
ffff000000000ad8:	a8c27bfd 	ldp	x29, x30, [sp],#32
ffff000000000adc:	d65f03c0 	ret

ffff000000000ae0 <timer_init>:
ffff000000000ae0:	a9be7bfd 	stp	x29, x30, [sp,#-32]!
ffff000000000ae4:	910003fd 	mov	x29, sp
ffff000000000ae8:	97ffffbc 	bl	ffff0000000009d8 <gic_v3_initialize>
ffff000000000aec:	97fffdec 	bl	ffff00000000029c <disable_cntv>
ffff000000000af0:	97fffe03 	bl	ffff0000000002fc <raw_read_cntfrq_el0>
ffff000000000af4:	b9001fa0 	str	w0, [x29,#28]
ffff000000000af8:	b9401fa1 	ldr	w1, [x29,#28]
ffff000000000afc:	5289ba60 	mov	w0, #0x4dd3                	// #19923
ffff000000000b00:	72a20c40 	movk	w0, #0x1062, lsl #16
ffff000000000b04:	9ba07c20 	umull	x0, w1, w0
ffff000000000b08:	d360fc00 	lsr	x0, x0, #32
ffff000000000b0c:	53067c00 	lsr	w0, w0, #6
ffff000000000b10:	2a0003e1 	mov	w1, w0
ffff000000000b14:	d0000040 	adrp	x0, ffff00000000a000 <pg_tbl_end>
ffff000000000b18:	91000000 	add	x0, x0, #0x0
ffff000000000b1c:	f9000001 	str	x1, [x0]
ffff000000000b20:	97fffe04 	bl	ffff000000000330 <raw_read_cntvct_el0>
ffff000000000b24:	f9000ba0 	str	x0, [x29,#16]
ffff000000000b28:	d0000040 	adrp	x0, ffff00000000a000 <pg_tbl_end>
ffff000000000b2c:	91000000 	add	x0, x0, #0x0
ffff000000000b30:	f9400001 	ldr	x1, [x0]
ffff000000000b34:	f9400ba0 	ldr	x0, [x29,#16]
ffff000000000b38:	8b000020 	add	x0, x1, x0
ffff000000000b3c:	97fffe09 	bl	ffff000000000360 <raw_write_cntv_cval_el0>
ffff000000000b40:	97fffde3 	bl	ffff0000000002cc <enable_cntv>
ffff000000000b44:	d503201f 	nop
ffff000000000b48:	a8c27bfd 	ldp	x29, x30, [sp],#32
ffff000000000b4c:	d65f03c0 	ret

ffff000000000b50 <irq_dispatch>:
ffff000000000b50:	a9be7bfd 	stp	x29, x30, [sp,#-32]!
ffff000000000b54:	910003fd 	mov	x29, sp
ffff000000000b58:	97fffd98 	bl	ffff0000000001b8 <disable_irq>
ffff000000000b5c:	910073a0 	add	x0, x29, #0x1c
ffff000000000b60:	97ffffb2 	bl	ffff000000000a28 <gic_v3_find_pending_irq>
ffff000000000b64:	7100001f 	cmp	w0, #0x0
ffff000000000b68:	540000a1 	b.ne	ffff000000000b7c <irq_dispatch+0x2c>
ffff000000000b6c:	d0000020 	adrp	x0, ffff000000006000 <__init_stack_top>
ffff000000000b70:	91006000 	add	x0, x0, #0x18
ffff000000000b74:	94000cd1 	bl	ffff000000003eb8 <tfp_printf>
ffff000000000b78:	14000007 	b	ffff000000000b94 <irq_dispatch+0x44>
ffff000000000b7c:	b9401fa0 	ldr	w0, [x29,#28]
ffff000000000b80:	71006c1f 	cmp	w0, #0x1b
ffff000000000b84:	54000040 	b.eq	ffff000000000b8c <irq_dispatch+0x3c>
ffff000000000b88:	14000003 	b	ffff000000000b94 <irq_dispatch+0x44>
ffff000000000b8c:	97ffffc0 	bl	ffff000000000a8c <timer_handler>
ffff000000000b90:	d503201f 	nop
ffff000000000b94:	97fffd7d 	bl	ffff000000000188 <enable_irq>
ffff000000000b98:	d503201f 	nop
ffff000000000b9c:	a8c27bfd 	ldp	x29, x30, [sp],#32
ffff000000000ba0:	d65f03c0 	ret

ffff000000000ba4 <put_exception>:
ffff000000000ba4:	a9be7bfd 	stp	x29, x30, [sp,#-32]!
ffff000000000ba8:	910003fd 	mov	x29, sp
ffff000000000bac:	f9000fa0 	str	x0, [x29,#24]
ffff000000000bb0:	d0000020 	adrp	x0, ffff000000006000 <__init_stack_top>
ffff000000000bb4:	9100a000 	add	x0, x0, #0x28
ffff000000000bb8:	f9400fa1 	ldr	x1, [x29,#24]
ffff000000000bbc:	94000cbf 	bl	ffff000000003eb8 <tfp_printf>
ffff000000000bc0:	14000000 	b	ffff000000000bc0 <put_exception+0x1c>
	...

ffff000000001000 <call_sys_write>:
ffff000000001000:	d2800008 	mov	x8, #0x0                   	// #0
ffff000000001004:	d4000001 	svc	#0x0
ffff000000001008:	d61f03c0 	br	x30

ffff00000000100c <call_sys_fork>:
ffff00000000100c:	d2800028 	mov	x8, #0x1                   	// #1
ffff000000001010:	d4000001 	svc	#0x0
ffff000000001014:	d61f03c0 	br	x30
ffff000000001018:	d503201f 	nop
ffff00000000101c:	d503201f 	nop
ffff000000001020:	d503201f 	nop
ffff000000001024:	d503201f 	nop
ffff000000001028:	d503201f 	nop
ffff00000000102c:	d503201f 	nop
ffff000000001030:	d503201f 	nop
ffff000000001034:	d503201f 	nop
ffff000000001038:	d503201f 	nop
ffff00000000103c:	d503201f 	nop
ffff000000001040:	d503201f 	nop
ffff000000001044:	d503201f 	nop
ffff000000001048:	d503201f 	nop
ffff00000000104c:	d503201f 	nop
ffff000000001050:	d503201f 	nop
ffff000000001054:	d503201f 	nop
ffff000000001058:	d503201f 	nop
ffff00000000105c:	d503201f 	nop
ffff000000001060:	d503201f 	nop
ffff000000001064:	d503201f 	nop
ffff000000001068:	d503201f 	nop
ffff00000000106c:	d503201f 	nop
ffff000000001070:	d503201f 	nop
ffff000000001074:	d503201f 	nop
ffff000000001078:	d503201f 	nop
ffff00000000107c:	d503201f 	nop
ffff000000001080:	d503201f 	nop
ffff000000001084:	d503201f 	nop
ffff000000001088:	d503201f 	nop
ffff00000000108c:	d503201f 	nop
ffff000000001090:	d503201f 	nop
ffff000000001094:	d503201f 	nop
ffff000000001098:	d503201f 	nop
ffff00000000109c:	d503201f 	nop
ffff0000000010a0:	d503201f 	nop
ffff0000000010a4:	d503201f 	nop
ffff0000000010a8:	d503201f 	nop
ffff0000000010ac:	d503201f 	nop
ffff0000000010b0:	d503201f 	nop
ffff0000000010b4:	d503201f 	nop
ffff0000000010b8:	d503201f 	nop
ffff0000000010bc:	d503201f 	nop
ffff0000000010c0:	d503201f 	nop
ffff0000000010c4:	d503201f 	nop
ffff0000000010c8:	d503201f 	nop
ffff0000000010cc:	d503201f 	nop
ffff0000000010d0:	d503201f 	nop
ffff0000000010d4:	d503201f 	nop
ffff0000000010d8:	d503201f 	nop
ffff0000000010dc:	d503201f 	nop
ffff0000000010e0:	d503201f 	nop
ffff0000000010e4:	d503201f 	nop
ffff0000000010e8:	d503201f 	nop
ffff0000000010ec:	d503201f 	nop
ffff0000000010f0:	d503201f 	nop
ffff0000000010f4:	d503201f 	nop
ffff0000000010f8:	d503201f 	nop
ffff0000000010fc:	d503201f 	nop
ffff000000001100:	d503201f 	nop
ffff000000001104:	d503201f 	nop
ffff000000001108:	d503201f 	nop
ffff00000000110c:	d503201f 	nop
ffff000000001110:	d503201f 	nop
ffff000000001114:	d503201f 	nop
ffff000000001118:	d503201f 	nop
ffff00000000111c:	d503201f 	nop
ffff000000001120:	d503201f 	nop
ffff000000001124:	d503201f 	nop
ffff000000001128:	d503201f 	nop
ffff00000000112c:	d503201f 	nop
ffff000000001130:	d503201f 	nop
ffff000000001134:	d503201f 	nop
ffff000000001138:	d503201f 	nop
ffff00000000113c:	d503201f 	nop
ffff000000001140:	d503201f 	nop
ffff000000001144:	d503201f 	nop
ffff000000001148:	d503201f 	nop
ffff00000000114c:	d503201f 	nop
ffff000000001150:	d503201f 	nop
ffff000000001154:	d503201f 	nop
ffff000000001158:	d503201f 	nop
ffff00000000115c:	d503201f 	nop
ffff000000001160:	d503201f 	nop
ffff000000001164:	d503201f 	nop
ffff000000001168:	d503201f 	nop
ffff00000000116c:	d503201f 	nop
ffff000000001170:	d503201f 	nop
ffff000000001174:	d503201f 	nop
ffff000000001178:	d503201f 	nop
ffff00000000117c:	d503201f 	nop
ffff000000001180:	d503201f 	nop
ffff000000001184:	d503201f 	nop
ffff000000001188:	d503201f 	nop
ffff00000000118c:	d503201f 	nop
ffff000000001190:	d503201f 	nop
ffff000000001194:	d503201f 	nop
ffff000000001198:	d503201f 	nop
ffff00000000119c:	d503201f 	nop
ffff0000000011a0:	d503201f 	nop
ffff0000000011a4:	d503201f 	nop
ffff0000000011a8:	d503201f 	nop
ffff0000000011ac:	d503201f 	nop
ffff0000000011b0:	d503201f 	nop
ffff0000000011b4:	d503201f 	nop
ffff0000000011b8:	d503201f 	nop
ffff0000000011bc:	d503201f 	nop
ffff0000000011c0:	d503201f 	nop
ffff0000000011c4:	d503201f 	nop
ffff0000000011c8:	d503201f 	nop
ffff0000000011cc:	d503201f 	nop
ffff0000000011d0:	d503201f 	nop
ffff0000000011d4:	d503201f 	nop
ffff0000000011d8:	d503201f 	nop
ffff0000000011dc:	d503201f 	nop
ffff0000000011e0:	d503201f 	nop
ffff0000000011e4:	d503201f 	nop
ffff0000000011e8:	d503201f 	nop
ffff0000000011ec:	d503201f 	nop
ffff0000000011f0:	d503201f 	nop
ffff0000000011f4:	d503201f 	nop
ffff0000000011f8:	d503201f 	nop
ffff0000000011fc:	d503201f 	nop
ffff000000001200:	d503201f 	nop
ffff000000001204:	d503201f 	nop
ffff000000001208:	d503201f 	nop
ffff00000000120c:	d503201f 	nop
ffff000000001210:	d503201f 	nop
ffff000000001214:	d503201f 	nop
ffff000000001218:	d503201f 	nop
ffff00000000121c:	d503201f 	nop
ffff000000001220:	d503201f 	nop
ffff000000001224:	d503201f 	nop
ffff000000001228:	d503201f 	nop
ffff00000000122c:	d503201f 	nop
ffff000000001230:	d503201f 	nop
ffff000000001234:	d503201f 	nop
ffff000000001238:	d503201f 	nop
ffff00000000123c:	d503201f 	nop
ffff000000001240:	d503201f 	nop
ffff000000001244:	d503201f 	nop
ffff000000001248:	d503201f 	nop
ffff00000000124c:	d503201f 	nop
ffff000000001250:	d503201f 	nop
ffff000000001254:	d503201f 	nop
ffff000000001258:	d503201f 	nop
ffff00000000125c:	d503201f 	nop
ffff000000001260:	d503201f 	nop
ffff000000001264:	d503201f 	nop
ffff000000001268:	d503201f 	nop
ffff00000000126c:	d503201f 	nop
ffff000000001270:	d503201f 	nop
ffff000000001274:	d503201f 	nop
ffff000000001278:	d503201f 	nop
ffff00000000127c:	d503201f 	nop
ffff000000001280:	d503201f 	nop
ffff000000001284:	d503201f 	nop
ffff000000001288:	d503201f 	nop
ffff00000000128c:	d503201f 	nop
ffff000000001290:	d503201f 	nop
ffff000000001294:	d503201f 	nop
ffff000000001298:	d503201f 	nop
ffff00000000129c:	d503201f 	nop
ffff0000000012a0:	d503201f 	nop
ffff0000000012a4:	d503201f 	nop
ffff0000000012a8:	d503201f 	nop
ffff0000000012ac:	d503201f 	nop
ffff0000000012b0:	d503201f 	nop
ffff0000000012b4:	d503201f 	nop
ffff0000000012b8:	d503201f 	nop
ffff0000000012bc:	d503201f 	nop
ffff0000000012c0:	d503201f 	nop
ffff0000000012c4:	d503201f 	nop
ffff0000000012c8:	d503201f 	nop
ffff0000000012cc:	d503201f 	nop
ffff0000000012d0:	d503201f 	nop
ffff0000000012d4:	d503201f 	nop
ffff0000000012d8:	d503201f 	nop
ffff0000000012dc:	d503201f 	nop
ffff0000000012e0:	d503201f 	nop
ffff0000000012e4:	d503201f 	nop
ffff0000000012e8:	d503201f 	nop
ffff0000000012ec:	d503201f 	nop
ffff0000000012f0:	d503201f 	nop
ffff0000000012f4:	d503201f 	nop
ffff0000000012f8:	d503201f 	nop
ffff0000000012fc:	d503201f 	nop
ffff000000001300:	d503201f 	nop
ffff000000001304:	d503201f 	nop
ffff000000001308:	d503201f 	nop
ffff00000000130c:	d503201f 	nop
ffff000000001310:	d503201f 	nop
ffff000000001314:	d503201f 	nop
ffff000000001318:	d503201f 	nop
ffff00000000131c:	d503201f 	nop
ffff000000001320:	d503201f 	nop
ffff000000001324:	d503201f 	nop
ffff000000001328:	d503201f 	nop
ffff00000000132c:	d503201f 	nop
ffff000000001330:	d503201f 	nop
ffff000000001334:	d503201f 	nop
ffff000000001338:	d503201f 	nop
ffff00000000133c:	d503201f 	nop
ffff000000001340:	d503201f 	nop
ffff000000001344:	d503201f 	nop
ffff000000001348:	d503201f 	nop
ffff00000000134c:	d503201f 	nop
ffff000000001350:	d503201f 	nop
ffff000000001354:	d503201f 	nop
ffff000000001358:	d503201f 	nop
ffff00000000135c:	d503201f 	nop
ffff000000001360:	d503201f 	nop
ffff000000001364:	d503201f 	nop
ffff000000001368:	d503201f 	nop
ffff00000000136c:	d503201f 	nop
ffff000000001370:	d503201f 	nop
ffff000000001374:	d503201f 	nop
ffff000000001378:	d503201f 	nop
ffff00000000137c:	d503201f 	nop
ffff000000001380:	d503201f 	nop
ffff000000001384:	d503201f 	nop
ffff000000001388:	d503201f 	nop
ffff00000000138c:	d503201f 	nop
ffff000000001390:	d503201f 	nop
ffff000000001394:	d503201f 	nop
ffff000000001398:	d503201f 	nop
ffff00000000139c:	d503201f 	nop
ffff0000000013a0:	d503201f 	nop
ffff0000000013a4:	d503201f 	nop
ffff0000000013a8:	d503201f 	nop
ffff0000000013ac:	d503201f 	nop
ffff0000000013b0:	d503201f 	nop
ffff0000000013b4:	d503201f 	nop
ffff0000000013b8:	d503201f 	nop
ffff0000000013bc:	d503201f 	nop
ffff0000000013c0:	d503201f 	nop
ffff0000000013c4:	d503201f 	nop
ffff0000000013c8:	d503201f 	nop
ffff0000000013cc:	d503201f 	nop
ffff0000000013d0:	d503201f 	nop
ffff0000000013d4:	d503201f 	nop
ffff0000000013d8:	d503201f 	nop
ffff0000000013dc:	d503201f 	nop
ffff0000000013e0:	d503201f 	nop
ffff0000000013e4:	d503201f 	nop
ffff0000000013e8:	d503201f 	nop
ffff0000000013ec:	d503201f 	nop
ffff0000000013f0:	d503201f 	nop
ffff0000000013f4:	d503201f 	nop
ffff0000000013f8:	d503201f 	nop
ffff0000000013fc:	d503201f 	nop
ffff000000001400:	d503201f 	nop
ffff000000001404:	d503201f 	nop
ffff000000001408:	d503201f 	nop
ffff00000000140c:	d503201f 	nop
ffff000000001410:	d503201f 	nop
ffff000000001414:	d503201f 	nop
ffff000000001418:	d503201f 	nop
ffff00000000141c:	d503201f 	nop
ffff000000001420:	d503201f 	nop
ffff000000001424:	d503201f 	nop
ffff000000001428:	d503201f 	nop
ffff00000000142c:	d503201f 	nop
ffff000000001430:	d503201f 	nop
ffff000000001434:	d503201f 	nop
ffff000000001438:	d503201f 	nop
ffff00000000143c:	d503201f 	nop
ffff000000001440:	d503201f 	nop
ffff000000001444:	d503201f 	nop
ffff000000001448:	d503201f 	nop
ffff00000000144c:	d503201f 	nop
ffff000000001450:	d503201f 	nop
ffff000000001454:	d503201f 	nop
ffff000000001458:	d503201f 	nop
ffff00000000145c:	d503201f 	nop
ffff000000001460:	d503201f 	nop
ffff000000001464:	d503201f 	nop
ffff000000001468:	d503201f 	nop
ffff00000000146c:	d503201f 	nop
ffff000000001470:	d503201f 	nop
ffff000000001474:	d503201f 	nop
ffff000000001478:	d503201f 	nop
ffff00000000147c:	d503201f 	nop
ffff000000001480:	d503201f 	nop
ffff000000001484:	d503201f 	nop
ffff000000001488:	d503201f 	nop
ffff00000000148c:	d503201f 	nop
ffff000000001490:	d503201f 	nop
ffff000000001494:	d503201f 	nop
ffff000000001498:	d503201f 	nop
ffff00000000149c:	d503201f 	nop
ffff0000000014a0:	d503201f 	nop
ffff0000000014a4:	d503201f 	nop
ffff0000000014a8:	d503201f 	nop
ffff0000000014ac:	d503201f 	nop
ffff0000000014b0:	d503201f 	nop
ffff0000000014b4:	d503201f 	nop
ffff0000000014b8:	d503201f 	nop
ffff0000000014bc:	d503201f 	nop
ffff0000000014c0:	d503201f 	nop
ffff0000000014c4:	d503201f 	nop
ffff0000000014c8:	d503201f 	nop
ffff0000000014cc:	d503201f 	nop
ffff0000000014d0:	d503201f 	nop
ffff0000000014d4:	d503201f 	nop
ffff0000000014d8:	d503201f 	nop
ffff0000000014dc:	d503201f 	nop
ffff0000000014e0:	d503201f 	nop
ffff0000000014e4:	d503201f 	nop
ffff0000000014e8:	d503201f 	nop
ffff0000000014ec:	d503201f 	nop
ffff0000000014f0:	d503201f 	nop
ffff0000000014f4:	d503201f 	nop
ffff0000000014f8:	d503201f 	nop
ffff0000000014fc:	d503201f 	nop
ffff000000001500:	d503201f 	nop
ffff000000001504:	d503201f 	nop
ffff000000001508:	d503201f 	nop
ffff00000000150c:	d503201f 	nop
ffff000000001510:	d503201f 	nop
ffff000000001514:	d503201f 	nop
ffff000000001518:	d503201f 	nop
ffff00000000151c:	d503201f 	nop
ffff000000001520:	d503201f 	nop
ffff000000001524:	d503201f 	nop
ffff000000001528:	d503201f 	nop
ffff00000000152c:	d503201f 	nop
ffff000000001530:	d503201f 	nop
ffff000000001534:	d503201f 	nop
ffff000000001538:	d503201f 	nop
ffff00000000153c:	d503201f 	nop
ffff000000001540:	d503201f 	nop
ffff000000001544:	d503201f 	nop
ffff000000001548:	d503201f 	nop
ffff00000000154c:	d503201f 	nop
ffff000000001550:	d503201f 	nop
ffff000000001554:	d503201f 	nop
ffff000000001558:	d503201f 	nop
ffff00000000155c:	d503201f 	nop
ffff000000001560:	d503201f 	nop
ffff000000001564:	d503201f 	nop
ffff000000001568:	d503201f 	nop
ffff00000000156c:	d503201f 	nop
ffff000000001570:	d503201f 	nop
ffff000000001574:	d503201f 	nop
ffff000000001578:	d503201f 	nop
ffff00000000157c:	d503201f 	nop
ffff000000001580:	d503201f 	nop
ffff000000001584:	d503201f 	nop
ffff000000001588:	d503201f 	nop
ffff00000000158c:	d503201f 	nop
ffff000000001590:	d503201f 	nop
ffff000000001594:	d503201f 	nop
ffff000000001598:	d503201f 	nop
ffff00000000159c:	d503201f 	nop
ffff0000000015a0:	d503201f 	nop
ffff0000000015a4:	d503201f 	nop
ffff0000000015a8:	d503201f 	nop
ffff0000000015ac:	d503201f 	nop
ffff0000000015b0:	d503201f 	nop
ffff0000000015b4:	d503201f 	nop
ffff0000000015b8:	d503201f 	nop
ffff0000000015bc:	d503201f 	nop
ffff0000000015c0:	d503201f 	nop
ffff0000000015c4:	d503201f 	nop
ffff0000000015c8:	d503201f 	nop
ffff0000000015cc:	d503201f 	nop
ffff0000000015d0:	d503201f 	nop
ffff0000000015d4:	d503201f 	nop
ffff0000000015d8:	d503201f 	nop
ffff0000000015dc:	d503201f 	nop
ffff0000000015e0:	d503201f 	nop
ffff0000000015e4:	d503201f 	nop
ffff0000000015e8:	d503201f 	nop
ffff0000000015ec:	d503201f 	nop
ffff0000000015f0:	d503201f 	nop
ffff0000000015f4:	d503201f 	nop
ffff0000000015f8:	d503201f 	nop
ffff0000000015fc:	d503201f 	nop
ffff000000001600:	d503201f 	nop
ffff000000001604:	d503201f 	nop
ffff000000001608:	d503201f 	nop
ffff00000000160c:	d503201f 	nop
ffff000000001610:	d503201f 	nop
ffff000000001614:	d503201f 	nop
ffff000000001618:	d503201f 	nop
ffff00000000161c:	d503201f 	nop
ffff000000001620:	d503201f 	nop
ffff000000001624:	d503201f 	nop
ffff000000001628:	d503201f 	nop
ffff00000000162c:	d503201f 	nop
ffff000000001630:	d503201f 	nop
ffff000000001634:	d503201f 	nop
ffff000000001638:	d503201f 	nop
ffff00000000163c:	d503201f 	nop
ffff000000001640:	d503201f 	nop
ffff000000001644:	d503201f 	nop
ffff000000001648:	d503201f 	nop
ffff00000000164c:	d503201f 	nop
ffff000000001650:	d503201f 	nop
ffff000000001654:	d503201f 	nop
ffff000000001658:	d503201f 	nop
ffff00000000165c:	d503201f 	nop
ffff000000001660:	d503201f 	nop
ffff000000001664:	d503201f 	nop
ffff000000001668:	d503201f 	nop
ffff00000000166c:	d503201f 	nop
ffff000000001670:	d503201f 	nop
ffff000000001674:	d503201f 	nop
ffff000000001678:	d503201f 	nop
ffff00000000167c:	d503201f 	nop
ffff000000001680:	d503201f 	nop
ffff000000001684:	d503201f 	nop
ffff000000001688:	d503201f 	nop
ffff00000000168c:	d503201f 	nop
ffff000000001690:	d503201f 	nop
ffff000000001694:	d503201f 	nop
ffff000000001698:	d503201f 	nop
ffff00000000169c:	d503201f 	nop
ffff0000000016a0:	d503201f 	nop
ffff0000000016a4:	d503201f 	nop
ffff0000000016a8:	d503201f 	nop
ffff0000000016ac:	d503201f 	nop
ffff0000000016b0:	d503201f 	nop
ffff0000000016b4:	d503201f 	nop
ffff0000000016b8:	d503201f 	nop
ffff0000000016bc:	d503201f 	nop
ffff0000000016c0:	d503201f 	nop
ffff0000000016c4:	d503201f 	nop
ffff0000000016c8:	d503201f 	nop
ffff0000000016cc:	d503201f 	nop
ffff0000000016d0:	d503201f 	nop
ffff0000000016d4:	d503201f 	nop
ffff0000000016d8:	d503201f 	nop
ffff0000000016dc:	d503201f 	nop
ffff0000000016e0:	d503201f 	nop
ffff0000000016e4:	d503201f 	nop
ffff0000000016e8:	d503201f 	nop
ffff0000000016ec:	d503201f 	nop
ffff0000000016f0:	d503201f 	nop
ffff0000000016f4:	d503201f 	nop
ffff0000000016f8:	d503201f 	nop
ffff0000000016fc:	d503201f 	nop
ffff000000001700:	d503201f 	nop
ffff000000001704:	d503201f 	nop
ffff000000001708:	d503201f 	nop
ffff00000000170c:	d503201f 	nop
ffff000000001710:	d503201f 	nop
ffff000000001714:	d503201f 	nop
ffff000000001718:	d503201f 	nop
ffff00000000171c:	d503201f 	nop
ffff000000001720:	d503201f 	nop
ffff000000001724:	d503201f 	nop
ffff000000001728:	d503201f 	nop
ffff00000000172c:	d503201f 	nop
ffff000000001730:	d503201f 	nop
ffff000000001734:	d503201f 	nop
ffff000000001738:	d503201f 	nop
ffff00000000173c:	d503201f 	nop
ffff000000001740:	d503201f 	nop
ffff000000001744:	d503201f 	nop
ffff000000001748:	d503201f 	nop
ffff00000000174c:	d503201f 	nop
ffff000000001750:	d503201f 	nop
ffff000000001754:	d503201f 	nop
ffff000000001758:	d503201f 	nop
ffff00000000175c:	d503201f 	nop
ffff000000001760:	d503201f 	nop
ffff000000001764:	d503201f 	nop
ffff000000001768:	d503201f 	nop
ffff00000000176c:	d503201f 	nop
ffff000000001770:	d503201f 	nop
ffff000000001774:	d503201f 	nop
ffff000000001778:	d503201f 	nop
ffff00000000177c:	d503201f 	nop
ffff000000001780:	d503201f 	nop
ffff000000001784:	d503201f 	nop
ffff000000001788:	d503201f 	nop
ffff00000000178c:	d503201f 	nop
ffff000000001790:	d503201f 	nop
ffff000000001794:	d503201f 	nop
ffff000000001798:	d503201f 	nop
ffff00000000179c:	d503201f 	nop
ffff0000000017a0:	d503201f 	nop
ffff0000000017a4:	d503201f 	nop
ffff0000000017a8:	d503201f 	nop
ffff0000000017ac:	d503201f 	nop
ffff0000000017b0:	d503201f 	nop
ffff0000000017b4:	d503201f 	nop
ffff0000000017b8:	d503201f 	nop
ffff0000000017bc:	d503201f 	nop
ffff0000000017c0:	d503201f 	nop
ffff0000000017c4:	d503201f 	nop
ffff0000000017c8:	d503201f 	nop
ffff0000000017cc:	d503201f 	nop
ffff0000000017d0:	d503201f 	nop
ffff0000000017d4:	d503201f 	nop
ffff0000000017d8:	d503201f 	nop
ffff0000000017dc:	d503201f 	nop
ffff0000000017e0:	d503201f 	nop
ffff0000000017e4:	d503201f 	nop
ffff0000000017e8:	d503201f 	nop
ffff0000000017ec:	d503201f 	nop
ffff0000000017f0:	d503201f 	nop
ffff0000000017f4:	d503201f 	nop
ffff0000000017f8:	d503201f 	nop
ffff0000000017fc:	d503201f 	nop

ffff000000001800 <vector_table_el1>:
ffff000000001800:	140001e1 	b	ffff000000001f84 <_curr_el_sp0_sync>
ffff000000001804:	d503201f 	nop
ffff000000001808:	d503201f 	nop
ffff00000000180c:	d503201f 	nop
ffff000000001810:	d503201f 	nop
ffff000000001814:	d503201f 	nop
ffff000000001818:	d503201f 	nop
ffff00000000181c:	d503201f 	nop
ffff000000001820:	d503201f 	nop
ffff000000001824:	d503201f 	nop
ffff000000001828:	d503201f 	nop
ffff00000000182c:	d503201f 	nop
ffff000000001830:	d503201f 	nop
ffff000000001834:	d503201f 	nop
ffff000000001838:	d503201f 	nop
ffff00000000183c:	d503201f 	nop
ffff000000001840:	d503201f 	nop
ffff000000001844:	d503201f 	nop
ffff000000001848:	d503201f 	nop
ffff00000000184c:	d503201f 	nop
ffff000000001850:	d503201f 	nop
ffff000000001854:	d503201f 	nop
ffff000000001858:	d503201f 	nop
ffff00000000185c:	d503201f 	nop
ffff000000001860:	d503201f 	nop
ffff000000001864:	d503201f 	nop
ffff000000001868:	d503201f 	nop
ffff00000000186c:	d503201f 	nop
ffff000000001870:	d503201f 	nop
ffff000000001874:	d503201f 	nop
ffff000000001878:	d503201f 	nop
ffff00000000187c:	d503201f 	nop
ffff000000001880:	140001c3 	b	ffff000000001f8c <_curr_el_sp0_irq>
ffff000000001884:	d503201f 	nop
ffff000000001888:	d503201f 	nop
ffff00000000188c:	d503201f 	nop
ffff000000001890:	d503201f 	nop
ffff000000001894:	d503201f 	nop
ffff000000001898:	d503201f 	nop
ffff00000000189c:	d503201f 	nop
ffff0000000018a0:	d503201f 	nop
ffff0000000018a4:	d503201f 	nop
ffff0000000018a8:	d503201f 	nop
ffff0000000018ac:	d503201f 	nop
ffff0000000018b0:	d503201f 	nop
ffff0000000018b4:	d503201f 	nop
ffff0000000018b8:	d503201f 	nop
ffff0000000018bc:	d503201f 	nop
ffff0000000018c0:	d503201f 	nop
ffff0000000018c4:	d503201f 	nop
ffff0000000018c8:	d503201f 	nop
ffff0000000018cc:	d503201f 	nop
ffff0000000018d0:	d503201f 	nop
ffff0000000018d4:	d503201f 	nop
ffff0000000018d8:	d503201f 	nop
ffff0000000018dc:	d503201f 	nop
ffff0000000018e0:	d503201f 	nop
ffff0000000018e4:	d503201f 	nop
ffff0000000018e8:	d503201f 	nop
ffff0000000018ec:	d503201f 	nop
ffff0000000018f0:	d503201f 	nop
ffff0000000018f4:	d503201f 	nop
ffff0000000018f8:	d503201f 	nop
ffff0000000018fc:	d503201f 	nop
ffff000000001900:	140001a5 	b	ffff000000001f94 <_curr_el_sp0_fiq>
ffff000000001904:	d503201f 	nop
ffff000000001908:	d503201f 	nop
ffff00000000190c:	d503201f 	nop
ffff000000001910:	d503201f 	nop
ffff000000001914:	d503201f 	nop
ffff000000001918:	d503201f 	nop
ffff00000000191c:	d503201f 	nop
ffff000000001920:	d503201f 	nop
ffff000000001924:	d503201f 	nop
ffff000000001928:	d503201f 	nop
ffff00000000192c:	d503201f 	nop
ffff000000001930:	d503201f 	nop
ffff000000001934:	d503201f 	nop
ffff000000001938:	d503201f 	nop
ffff00000000193c:	d503201f 	nop
ffff000000001940:	d503201f 	nop
ffff000000001944:	d503201f 	nop
ffff000000001948:	d503201f 	nop
ffff00000000194c:	d503201f 	nop
ffff000000001950:	d503201f 	nop
ffff000000001954:	d503201f 	nop
ffff000000001958:	d503201f 	nop
ffff00000000195c:	d503201f 	nop
ffff000000001960:	d503201f 	nop
ffff000000001964:	d503201f 	nop
ffff000000001968:	d503201f 	nop
ffff00000000196c:	d503201f 	nop
ffff000000001970:	d503201f 	nop
ffff000000001974:	d503201f 	nop
ffff000000001978:	d503201f 	nop
ffff00000000197c:	d503201f 	nop
ffff000000001980:	14000187 	b	ffff000000001f9c <_curr_el_sp0_serror>
ffff000000001984:	d503201f 	nop
ffff000000001988:	d503201f 	nop
ffff00000000198c:	d503201f 	nop
ffff000000001990:	d503201f 	nop
ffff000000001994:	d503201f 	nop
ffff000000001998:	d503201f 	nop
ffff00000000199c:	d503201f 	nop
ffff0000000019a0:	d503201f 	nop
ffff0000000019a4:	d503201f 	nop
ffff0000000019a8:	d503201f 	nop
ffff0000000019ac:	d503201f 	nop
ffff0000000019b0:	d503201f 	nop
ffff0000000019b4:	d503201f 	nop
ffff0000000019b8:	d503201f 	nop
ffff0000000019bc:	d503201f 	nop
ffff0000000019c0:	d503201f 	nop
ffff0000000019c4:	d503201f 	nop
ffff0000000019c8:	d503201f 	nop
ffff0000000019cc:	d503201f 	nop
ffff0000000019d0:	d503201f 	nop
ffff0000000019d4:	d503201f 	nop
ffff0000000019d8:	d503201f 	nop
ffff0000000019dc:	d503201f 	nop
ffff0000000019e0:	d503201f 	nop
ffff0000000019e4:	d503201f 	nop
ffff0000000019e8:	d503201f 	nop
ffff0000000019ec:	d503201f 	nop
ffff0000000019f0:	d503201f 	nop
ffff0000000019f4:	d503201f 	nop
ffff0000000019f8:	d503201f 	nop
ffff0000000019fc:	d503201f 	nop
ffff000000001a00:	14000169 	b	ffff000000001fa4 <_curr_el_spx_sync>
ffff000000001a04:	d503201f 	nop
ffff000000001a08:	d503201f 	nop
ffff000000001a0c:	d503201f 	nop
ffff000000001a10:	d503201f 	nop
ffff000000001a14:	d503201f 	nop
ffff000000001a18:	d503201f 	nop
ffff000000001a1c:	d503201f 	nop
ffff000000001a20:	d503201f 	nop
ffff000000001a24:	d503201f 	nop
ffff000000001a28:	d503201f 	nop
ffff000000001a2c:	d503201f 	nop
ffff000000001a30:	d503201f 	nop
ffff000000001a34:	d503201f 	nop
ffff000000001a38:	d503201f 	nop
ffff000000001a3c:	d503201f 	nop
ffff000000001a40:	d503201f 	nop
ffff000000001a44:	d503201f 	nop
ffff000000001a48:	d503201f 	nop
ffff000000001a4c:	d503201f 	nop
ffff000000001a50:	d503201f 	nop
ffff000000001a54:	d503201f 	nop
ffff000000001a58:	d503201f 	nop
ffff000000001a5c:	d503201f 	nop
ffff000000001a60:	d503201f 	nop
ffff000000001a64:	d503201f 	nop
ffff000000001a68:	d503201f 	nop
ffff000000001a6c:	d503201f 	nop
ffff000000001a70:	d503201f 	nop
ffff000000001a74:	d503201f 	nop
ffff000000001a78:	d503201f 	nop
ffff000000001a7c:	d503201f 	nop
ffff000000001a80:	1400014b 	b	ffff000000001fac <_curr_el_spx_irq>
ffff000000001a84:	d503201f 	nop
ffff000000001a88:	d503201f 	nop
ffff000000001a8c:	d503201f 	nop
ffff000000001a90:	d503201f 	nop
ffff000000001a94:	d503201f 	nop
ffff000000001a98:	d503201f 	nop
ffff000000001a9c:	d503201f 	nop
ffff000000001aa0:	d503201f 	nop
ffff000000001aa4:	d503201f 	nop
ffff000000001aa8:	d503201f 	nop
ffff000000001aac:	d503201f 	nop
ffff000000001ab0:	d503201f 	nop
ffff000000001ab4:	d503201f 	nop
ffff000000001ab8:	d503201f 	nop
ffff000000001abc:	d503201f 	nop
ffff000000001ac0:	d503201f 	nop
ffff000000001ac4:	d503201f 	nop
ffff000000001ac8:	d503201f 	nop
ffff000000001acc:	d503201f 	nop
ffff000000001ad0:	d503201f 	nop
ffff000000001ad4:	d503201f 	nop
ffff000000001ad8:	d503201f 	nop
ffff000000001adc:	d503201f 	nop
ffff000000001ae0:	d503201f 	nop
ffff000000001ae4:	d503201f 	nop
ffff000000001ae8:	d503201f 	nop
ffff000000001aec:	d503201f 	nop
ffff000000001af0:	d503201f 	nop
ffff000000001af4:	d503201f 	nop
ffff000000001af8:	d503201f 	nop
ffff000000001afc:	d503201f 	nop
ffff000000001b00:	14000156 	b	ffff000000002058 <_curr_el_spx_fiq>
ffff000000001b04:	d503201f 	nop
ffff000000001b08:	d503201f 	nop
ffff000000001b0c:	d503201f 	nop
ffff000000001b10:	d503201f 	nop
ffff000000001b14:	d503201f 	nop
ffff000000001b18:	d503201f 	nop
ffff000000001b1c:	d503201f 	nop
ffff000000001b20:	d503201f 	nop
ffff000000001b24:	d503201f 	nop
ffff000000001b28:	d503201f 	nop
ffff000000001b2c:	d503201f 	nop
ffff000000001b30:	d503201f 	nop
ffff000000001b34:	d503201f 	nop
ffff000000001b38:	d503201f 	nop
ffff000000001b3c:	d503201f 	nop
ffff000000001b40:	d503201f 	nop
ffff000000001b44:	d503201f 	nop
ffff000000001b48:	d503201f 	nop
ffff000000001b4c:	d503201f 	nop
ffff000000001b50:	d503201f 	nop
ffff000000001b54:	d503201f 	nop
ffff000000001b58:	d503201f 	nop
ffff000000001b5c:	d503201f 	nop
ffff000000001b60:	d503201f 	nop
ffff000000001b64:	d503201f 	nop
ffff000000001b68:	d503201f 	nop
ffff000000001b6c:	d503201f 	nop
ffff000000001b70:	d503201f 	nop
ffff000000001b74:	d503201f 	nop
ffff000000001b78:	d503201f 	nop
ffff000000001b7c:	d503201f 	nop
ffff000000001b80:	14000138 	b	ffff000000002060 <_curr_el_spx_serror>
ffff000000001b84:	d503201f 	nop
ffff000000001b88:	d503201f 	nop
ffff000000001b8c:	d503201f 	nop
ffff000000001b90:	d503201f 	nop
ffff000000001b94:	d503201f 	nop
ffff000000001b98:	d503201f 	nop
ffff000000001b9c:	d503201f 	nop
ffff000000001ba0:	d503201f 	nop
ffff000000001ba4:	d503201f 	nop
ffff000000001ba8:	d503201f 	nop
ffff000000001bac:	d503201f 	nop
ffff000000001bb0:	d503201f 	nop
ffff000000001bb4:	d503201f 	nop
ffff000000001bb8:	d503201f 	nop
ffff000000001bbc:	d503201f 	nop
ffff000000001bc0:	d503201f 	nop
ffff000000001bc4:	d503201f 	nop
ffff000000001bc8:	d503201f 	nop
ffff000000001bcc:	d503201f 	nop
ffff000000001bd0:	d503201f 	nop
ffff000000001bd4:	d503201f 	nop
ffff000000001bd8:	d503201f 	nop
ffff000000001bdc:	d503201f 	nop
ffff000000001be0:	d503201f 	nop
ffff000000001be4:	d503201f 	nop
ffff000000001be8:	d503201f 	nop
ffff000000001bec:	d503201f 	nop
ffff000000001bf0:	d503201f 	nop
ffff000000001bf4:	d503201f 	nop
ffff000000001bf8:	d503201f 	nop
ffff000000001bfc:	d503201f 	nop
ffff000000001c00:	1400011a 	b	ffff000000002068 <_lower_el_aarch64_sync>
ffff000000001c04:	d503201f 	nop
ffff000000001c08:	d503201f 	nop
ffff000000001c0c:	d503201f 	nop
ffff000000001c10:	d503201f 	nop
ffff000000001c14:	d503201f 	nop
ffff000000001c18:	d503201f 	nop
ffff000000001c1c:	d503201f 	nop
ffff000000001c20:	d503201f 	nop
ffff000000001c24:	d503201f 	nop
ffff000000001c28:	d503201f 	nop
ffff000000001c2c:	d503201f 	nop
ffff000000001c30:	d503201f 	nop
ffff000000001c34:	d503201f 	nop
ffff000000001c38:	d503201f 	nop
ffff000000001c3c:	d503201f 	nop
ffff000000001c40:	d503201f 	nop
ffff000000001c44:	d503201f 	nop
ffff000000001c48:	d503201f 	nop
ffff000000001c4c:	d503201f 	nop
ffff000000001c50:	d503201f 	nop
ffff000000001c54:	d503201f 	nop
ffff000000001c58:	d503201f 	nop
ffff000000001c5c:	d503201f 	nop
ffff000000001c60:	d503201f 	nop
ffff000000001c64:	d503201f 	nop
ffff000000001c68:	d503201f 	nop
ffff000000001c6c:	d503201f 	nop
ffff000000001c70:	d503201f 	nop
ffff000000001c74:	d503201f 	nop
ffff000000001c78:	d503201f 	nop
ffff000000001c7c:	d503201f 	nop
ffff000000001c80:	14000154 	b	ffff0000000021d0 <_lower_el_aarch64_irq>
ffff000000001c84:	d503201f 	nop
ffff000000001c88:	d503201f 	nop
ffff000000001c8c:	d503201f 	nop
ffff000000001c90:	d503201f 	nop
ffff000000001c94:	d503201f 	nop
ffff000000001c98:	d503201f 	nop
ffff000000001c9c:	d503201f 	nop
ffff000000001ca0:	d503201f 	nop
ffff000000001ca4:	d503201f 	nop
ffff000000001ca8:	d503201f 	nop
ffff000000001cac:	d503201f 	nop
ffff000000001cb0:	d503201f 	nop
ffff000000001cb4:	d503201f 	nop
ffff000000001cb8:	d503201f 	nop
ffff000000001cbc:	d503201f 	nop
ffff000000001cc0:	d503201f 	nop
ffff000000001cc4:	d503201f 	nop
ffff000000001cc8:	d503201f 	nop
ffff000000001ccc:	d503201f 	nop
ffff000000001cd0:	d503201f 	nop
ffff000000001cd4:	d503201f 	nop
ffff000000001cd8:	d503201f 	nop
ffff000000001cdc:	d503201f 	nop
ffff000000001ce0:	d503201f 	nop
ffff000000001ce4:	d503201f 	nop
ffff000000001ce8:	d503201f 	nop
ffff000000001cec:	d503201f 	nop
ffff000000001cf0:	d503201f 	nop
ffff000000001cf4:	d503201f 	nop
ffff000000001cf8:	d503201f 	nop
ffff000000001cfc:	d503201f 	nop
ffff000000001d00:	14000161 	b	ffff000000002284 <_lower_el_aarch64_fiq>
ffff000000001d04:	d503201f 	nop
ffff000000001d08:	d503201f 	nop
ffff000000001d0c:	d503201f 	nop
ffff000000001d10:	d503201f 	nop
ffff000000001d14:	d503201f 	nop
ffff000000001d18:	d503201f 	nop
ffff000000001d1c:	d503201f 	nop
ffff000000001d20:	d503201f 	nop
ffff000000001d24:	d503201f 	nop
ffff000000001d28:	d503201f 	nop
ffff000000001d2c:	d503201f 	nop
ffff000000001d30:	d503201f 	nop
ffff000000001d34:	d503201f 	nop
ffff000000001d38:	d503201f 	nop
ffff000000001d3c:	d503201f 	nop
ffff000000001d40:	d503201f 	nop
ffff000000001d44:	d503201f 	nop
ffff000000001d48:	d503201f 	nop
ffff000000001d4c:	d503201f 	nop
ffff000000001d50:	d503201f 	nop
ffff000000001d54:	d503201f 	nop
ffff000000001d58:	d503201f 	nop
ffff000000001d5c:	d503201f 	nop
ffff000000001d60:	d503201f 	nop
ffff000000001d64:	d503201f 	nop
ffff000000001d68:	d503201f 	nop
ffff000000001d6c:	d503201f 	nop
ffff000000001d70:	d503201f 	nop
ffff000000001d74:	d503201f 	nop
ffff000000001d78:	d503201f 	nop
ffff000000001d7c:	d503201f 	nop
ffff000000001d80:	14000143 	b	ffff00000000228c <_lower_el_aarch64_serror>
ffff000000001d84:	d503201f 	nop
ffff000000001d88:	d503201f 	nop
ffff000000001d8c:	d503201f 	nop
ffff000000001d90:	d503201f 	nop
ffff000000001d94:	d503201f 	nop
ffff000000001d98:	d503201f 	nop
ffff000000001d9c:	d503201f 	nop
ffff000000001da0:	d503201f 	nop
ffff000000001da4:	d503201f 	nop
ffff000000001da8:	d503201f 	nop
ffff000000001dac:	d503201f 	nop
ffff000000001db0:	d503201f 	nop
ffff000000001db4:	d503201f 	nop
ffff000000001db8:	d503201f 	nop
ffff000000001dbc:	d503201f 	nop
ffff000000001dc0:	d503201f 	nop
ffff000000001dc4:	d503201f 	nop
ffff000000001dc8:	d503201f 	nop
ffff000000001dcc:	d503201f 	nop
ffff000000001dd0:	d503201f 	nop
ffff000000001dd4:	d503201f 	nop
ffff000000001dd8:	d503201f 	nop
ffff000000001ddc:	d503201f 	nop
ffff000000001de0:	d503201f 	nop
ffff000000001de4:	d503201f 	nop
ffff000000001de8:	d503201f 	nop
ffff000000001dec:	d503201f 	nop
ffff000000001df0:	d503201f 	nop
ffff000000001df4:	d503201f 	nop
ffff000000001df8:	d503201f 	nop
ffff000000001dfc:	d503201f 	nop
ffff000000001e00:	14000125 	b	ffff000000002294 <_lower_el_aarch32_sync>
ffff000000001e04:	d503201f 	nop
ffff000000001e08:	d503201f 	nop
ffff000000001e0c:	d503201f 	nop
ffff000000001e10:	d503201f 	nop
ffff000000001e14:	d503201f 	nop
ffff000000001e18:	d503201f 	nop
ffff000000001e1c:	d503201f 	nop
ffff000000001e20:	d503201f 	nop
ffff000000001e24:	d503201f 	nop
ffff000000001e28:	d503201f 	nop
ffff000000001e2c:	d503201f 	nop
ffff000000001e30:	d503201f 	nop
ffff000000001e34:	d503201f 	nop
ffff000000001e38:	d503201f 	nop
ffff000000001e3c:	d503201f 	nop
ffff000000001e40:	d503201f 	nop
ffff000000001e44:	d503201f 	nop
ffff000000001e48:	d503201f 	nop
ffff000000001e4c:	d503201f 	nop
ffff000000001e50:	d503201f 	nop
ffff000000001e54:	d503201f 	nop
ffff000000001e58:	d503201f 	nop
ffff000000001e5c:	d503201f 	nop
ffff000000001e60:	d503201f 	nop
ffff000000001e64:	d503201f 	nop
ffff000000001e68:	d503201f 	nop
ffff000000001e6c:	d503201f 	nop
ffff000000001e70:	d503201f 	nop
ffff000000001e74:	d503201f 	nop
ffff000000001e78:	d503201f 	nop
ffff000000001e7c:	d503201f 	nop
ffff000000001e80:	14000107 	b	ffff00000000229c <_lower_el_aarch32_irq>
ffff000000001e84:	d503201f 	nop
ffff000000001e88:	d503201f 	nop
ffff000000001e8c:	d503201f 	nop
ffff000000001e90:	d503201f 	nop
ffff000000001e94:	d503201f 	nop
ffff000000001e98:	d503201f 	nop
ffff000000001e9c:	d503201f 	nop
ffff000000001ea0:	d503201f 	nop
ffff000000001ea4:	d503201f 	nop
ffff000000001ea8:	d503201f 	nop
ffff000000001eac:	d503201f 	nop
ffff000000001eb0:	d503201f 	nop
ffff000000001eb4:	d503201f 	nop
ffff000000001eb8:	d503201f 	nop
ffff000000001ebc:	d503201f 	nop
ffff000000001ec0:	d503201f 	nop
ffff000000001ec4:	d503201f 	nop
ffff000000001ec8:	d503201f 	nop
ffff000000001ecc:	d503201f 	nop
ffff000000001ed0:	d503201f 	nop
ffff000000001ed4:	d503201f 	nop
ffff000000001ed8:	d503201f 	nop
ffff000000001edc:	d503201f 	nop
ffff000000001ee0:	d503201f 	nop
ffff000000001ee4:	d503201f 	nop
ffff000000001ee8:	d503201f 	nop
ffff000000001eec:	d503201f 	nop
ffff000000001ef0:	d503201f 	nop
ffff000000001ef4:	d503201f 	nop
ffff000000001ef8:	d503201f 	nop
ffff000000001efc:	d503201f 	nop
ffff000000001f00:	140000e9 	b	ffff0000000022a4 <_lower_el_aarch32_fiq>
ffff000000001f04:	d503201f 	nop
ffff000000001f08:	d503201f 	nop
ffff000000001f0c:	d503201f 	nop
ffff000000001f10:	d503201f 	nop
ffff000000001f14:	d503201f 	nop
ffff000000001f18:	d503201f 	nop
ffff000000001f1c:	d503201f 	nop
ffff000000001f20:	d503201f 	nop
ffff000000001f24:	d503201f 	nop
ffff000000001f28:	d503201f 	nop
ffff000000001f2c:	d503201f 	nop
ffff000000001f30:	d503201f 	nop
ffff000000001f34:	d503201f 	nop
ffff000000001f38:	d503201f 	nop
ffff000000001f3c:	d503201f 	nop
ffff000000001f40:	d503201f 	nop
ffff000000001f44:	d503201f 	nop
ffff000000001f48:	d503201f 	nop
ffff000000001f4c:	d503201f 	nop
ffff000000001f50:	d503201f 	nop
ffff000000001f54:	d503201f 	nop
ffff000000001f58:	d503201f 	nop
ffff000000001f5c:	d503201f 	nop
ffff000000001f60:	d503201f 	nop
ffff000000001f64:	d503201f 	nop
ffff000000001f68:	d503201f 	nop
ffff000000001f6c:	d503201f 	nop
ffff000000001f70:	d503201f 	nop
ffff000000001f74:	d503201f 	nop
ffff000000001f78:	d503201f 	nop
ffff000000001f7c:	d503201f 	nop
ffff000000001f80:	140000cb 	b	ffff0000000022ac <_lower_el_aarch32_serror>

ffff000000001f84 <_curr_el_sp0_sync>:
ffff000000001f84:	d2800000 	mov	x0, #0x0                   	// #0
ffff000000001f88:	97fffb07 	bl	ffff000000000ba4 <put_exception>

ffff000000001f8c <_curr_el_sp0_irq>:
ffff000000001f8c:	d2800020 	mov	x0, #0x1                   	// #1
ffff000000001f90:	97fffb05 	bl	ffff000000000ba4 <put_exception>

ffff000000001f94 <_curr_el_sp0_fiq>:
ffff000000001f94:	d2800040 	mov	x0, #0x2                   	// #2
ffff000000001f98:	97fffb03 	bl	ffff000000000ba4 <put_exception>

ffff000000001f9c <_curr_el_sp0_serror>:
ffff000000001f9c:	d2800060 	mov	x0, #0x3                   	// #3
ffff000000001fa0:	97fffb01 	bl	ffff000000000ba4 <put_exception>

ffff000000001fa4 <_curr_el_spx_sync>:
ffff000000001fa4:	d2800080 	mov	x0, #0x4                   	// #4
ffff000000001fa8:	97fffaff 	bl	ffff000000000ba4 <put_exception>

ffff000000001fac <_curr_el_spx_irq>:
ffff000000001fac:	d10443ff 	sub	sp, sp, #0x110
ffff000000001fb0:	a90007e0 	stp	x0, x1, [sp]
ffff000000001fb4:	a9010fe2 	stp	x2, x3, [sp,#16]
ffff000000001fb8:	a90217e4 	stp	x4, x5, [sp,#32]
ffff000000001fbc:	a9031fe6 	stp	x6, x7, [sp,#48]
ffff000000001fc0:	a90427e8 	stp	x8, x9, [sp,#64]
ffff000000001fc4:	a9052fea 	stp	x10, x11, [sp,#80]
ffff000000001fc8:	a90637ec 	stp	x12, x13, [sp,#96]
ffff000000001fcc:	a9073fee 	stp	x14, x15, [sp,#112]
ffff000000001fd0:	a90847f0 	stp	x16, x17, [sp,#128]
ffff000000001fd4:	a9094ff2 	stp	x18, x19, [sp,#144]
ffff000000001fd8:	a90a57f4 	stp	x20, x21, [sp,#160]
ffff000000001fdc:	a90b5ff6 	stp	x22, x23, [sp,#176]
ffff000000001fe0:	a90c67f8 	stp	x24, x25, [sp,#192]
ffff000000001fe4:	a90d6ffa 	stp	x26, x27, [sp,#208]
ffff000000001fe8:	a90e77fc 	stp	x28, x29, [sp,#224]
ffff000000001fec:	910443f5 	add	x21, sp, #0x110
ffff000000001ff0:	d5384036 	mrs	x22, elr_el1
ffff000000001ff4:	d5384017 	mrs	x23, spsr_el1
ffff000000001ff8:	a90f57fe 	stp	x30, x21, [sp,#240]
ffff000000001ffc:	a9105ff6 	stp	x22, x23, [sp,#256]
ffff000000002000:	97fffad4 	bl	ffff000000000b50 <irq_dispatch>
ffff000000002004:	a9505ff6 	ldp	x22, x23, [sp,#256]
ffff000000002008:	a94f57fe 	ldp	x30, x21, [sp,#240]
ffff00000000200c:	d5184036 	msr	elr_el1, x22
ffff000000002010:	d5184017 	msr	spsr_el1, x23
ffff000000002014:	a94007e0 	ldp	x0, x1, [sp]
ffff000000002018:	a9410fe2 	ldp	x2, x3, [sp,#16]
ffff00000000201c:	a94217e4 	ldp	x4, x5, [sp,#32]
ffff000000002020:	a9431fe6 	ldp	x6, x7, [sp,#48]
ffff000000002024:	a94427e8 	ldp	x8, x9, [sp,#64]
ffff000000002028:	a9452fea 	ldp	x10, x11, [sp,#80]
ffff00000000202c:	a94637ec 	ldp	x12, x13, [sp,#96]
ffff000000002030:	a9473fee 	ldp	x14, x15, [sp,#112]
ffff000000002034:	a94847f0 	ldp	x16, x17, [sp,#128]
ffff000000002038:	a9494ff2 	ldp	x18, x19, [sp,#144]
ffff00000000203c:	a94a57f4 	ldp	x20, x21, [sp,#160]
ffff000000002040:	a94b5ff6 	ldp	x22, x23, [sp,#176]
ffff000000002044:	a94c67f8 	ldp	x24, x25, [sp,#192]
ffff000000002048:	a94d6ffa 	ldp	x26, x27, [sp,#208]
ffff00000000204c:	a94e77fc 	ldp	x28, x29, [sp,#224]
ffff000000002050:	910443ff 	add	sp, sp, #0x110
ffff000000002054:	d69f03e0 	eret

ffff000000002058 <_curr_el_spx_fiq>:
ffff000000002058:	d28000c0 	mov	x0, #0x6                   	// #6
ffff00000000205c:	97fffad2 	bl	ffff000000000ba4 <put_exception>

ffff000000002060 <_curr_el_spx_serror>:
ffff000000002060:	d28000e0 	mov	x0, #0x7                   	// #7
ffff000000002064:	97fffad0 	bl	ffff000000000ba4 <put_exception>

ffff000000002068 <_lower_el_aarch64_sync>:
ffff000000002068:	d10443ff 	sub	sp, sp, #0x110
ffff00000000206c:	a90007e0 	stp	x0, x1, [sp]
ffff000000002070:	a9010fe2 	stp	x2, x3, [sp,#16]
ffff000000002074:	a90217e4 	stp	x4, x5, [sp,#32]
ffff000000002078:	a9031fe6 	stp	x6, x7, [sp,#48]
ffff00000000207c:	a90427e8 	stp	x8, x9, [sp,#64]
ffff000000002080:	a9052fea 	stp	x10, x11, [sp,#80]
ffff000000002084:	a90637ec 	stp	x12, x13, [sp,#96]
ffff000000002088:	a9073fee 	stp	x14, x15, [sp,#112]
ffff00000000208c:	a90847f0 	stp	x16, x17, [sp,#128]
ffff000000002090:	a9094ff2 	stp	x18, x19, [sp,#144]
ffff000000002094:	a90a57f4 	stp	x20, x21, [sp,#160]
ffff000000002098:	a90b5ff6 	stp	x22, x23, [sp,#176]
ffff00000000209c:	a90c67f8 	stp	x24, x25, [sp,#192]
ffff0000000020a0:	a90d6ffa 	stp	x26, x27, [sp,#208]
ffff0000000020a4:	a90e77fc 	stp	x28, x29, [sp,#224]
ffff0000000020a8:	d5384115 	mrs	x21, sp_el0
ffff0000000020ac:	d5384036 	mrs	x22, elr_el1
ffff0000000020b0:	d5384017 	mrs	x23, spsr_el1
ffff0000000020b4:	a90f57fe 	stp	x30, x21, [sp,#240]
ffff0000000020b8:	a9105ff6 	stp	x22, x23, [sp,#256]
ffff0000000020bc:	d5385213 	mrs	x19, esr_el1
ffff0000000020c0:	92661674 	and	x20, x19, #0xfc000000
ffff0000000020c4:	d2aa8015 	mov	x21, #0x54000000            	// #1409286144
ffff0000000020c8:	eb15029f 	cmp	x20, x21
ffff0000000020cc:	54000060 	b.eq	ffff0000000020d8 <el0_svc>
ffff0000000020d0:	d2800100 	mov	x0, #0x8                   	// #8
ffff0000000020d4:	97fffab4 	bl	ffff000000000ba4 <put_exception>

ffff0000000020d8 <el0_svc>:
ffff0000000020d8:	58001189 	ldr	x9, ffff000000002308 <cpu_switch_to+0x54>
ffff0000000020dc:	d280008a 	mov	x10, #0x4                   	// #4
ffff0000000020e0:	eb0a011f 	cmp	x8, x10
ffff0000000020e4:	54000002 	b.cs	ffff0000000020e4 <el0_svc+0xc>
ffff0000000020e8:	d37df10b 	lsl	x11, x8, #3
ffff0000000020ec:	8b0b012b 	add	x11, x9, x11
ffff0000000020f0:	f940016c 	ldr	x12, [x11]
ffff0000000020f4:	97fff825 	bl	ffff000000000188 <enable_irq>
ffff0000000020f8:	d63f0180 	blr	x12
ffff0000000020fc:	97fff82f 	bl	ffff0000000001b8 <disable_irq>
ffff000000002100:	910443ed 	add	x13, sp, #0x110
ffff000000002104:	d10001ad 	sub	x13, x13, #0x0
ffff000000002108:	f90001a0 	str	x0, [x13]
ffff00000000210c:	94000259 	bl	ffff000000002a70 <schedule>
ffff000000002110:	a9505ff6 	ldp	x22, x23, [sp,#256]
ffff000000002114:	a94f57fe 	ldp	x30, x21, [sp,#240]
ffff000000002118:	d5184115 	msr	sp_el0, x21
ffff00000000211c:	d5184036 	msr	elr_el1, x22
ffff000000002120:	d5184017 	msr	spsr_el1, x23
ffff000000002124:	a94007e0 	ldp	x0, x1, [sp]
ffff000000002128:	a9410fe2 	ldp	x2, x3, [sp,#16]
ffff00000000212c:	a94217e4 	ldp	x4, x5, [sp,#32]
ffff000000002130:	a9431fe6 	ldp	x6, x7, [sp,#48]
ffff000000002134:	a94427e8 	ldp	x8, x9, [sp,#64]
ffff000000002138:	a9452fea 	ldp	x10, x11, [sp,#80]
ffff00000000213c:	a94637ec 	ldp	x12, x13, [sp,#96]
ffff000000002140:	a9473fee 	ldp	x14, x15, [sp,#112]
ffff000000002144:	a94847f0 	ldp	x16, x17, [sp,#128]
ffff000000002148:	a9494ff2 	ldp	x18, x19, [sp,#144]
ffff00000000214c:	a94a57f4 	ldp	x20, x21, [sp,#160]
ffff000000002150:	a94b5ff6 	ldp	x22, x23, [sp,#176]
ffff000000002154:	a94c67f8 	ldp	x24, x25, [sp,#192]
ffff000000002158:	a94d6ffa 	ldp	x26, x27, [sp,#208]
ffff00000000215c:	a94e77fc 	ldp	x28, x29, [sp,#224]
ffff000000002160:	910443ff 	add	sp, sp, #0x110
ffff000000002164:	d69f03e0 	eret

ffff000000002168 <ret_from_fork>:
ffff000000002168:	b4000073 	cbz	x19, ffff000000002174 <ret_to_user>
ffff00000000216c:	aa1303fe 	mov	x30, x19
ffff000000002170:	d65f03c0 	ret

ffff000000002174 <ret_to_user>:
ffff000000002174:	9400023f 	bl	ffff000000002a70 <schedule>
ffff000000002178:	a9505ff6 	ldp	x22, x23, [sp,#256]
ffff00000000217c:	a94f57fe 	ldp	x30, x21, [sp,#240]
ffff000000002180:	d5184115 	msr	sp_el0, x21
ffff000000002184:	d5184036 	msr	elr_el1, x22
ffff000000002188:	d5184017 	msr	spsr_el1, x23
ffff00000000218c:	a94007e0 	ldp	x0, x1, [sp]
ffff000000002190:	a9410fe2 	ldp	x2, x3, [sp,#16]
ffff000000002194:	a94217e4 	ldp	x4, x5, [sp,#32]
ffff000000002198:	a9431fe6 	ldp	x6, x7, [sp,#48]
ffff00000000219c:	a94427e8 	ldp	x8, x9, [sp,#64]
ffff0000000021a0:	a9452fea 	ldp	x10, x11, [sp,#80]
ffff0000000021a4:	a94637ec 	ldp	x12, x13, [sp,#96]
ffff0000000021a8:	a9473fee 	ldp	x14, x15, [sp,#112]
ffff0000000021ac:	a94847f0 	ldp	x16, x17, [sp,#128]
ffff0000000021b0:	a9494ff2 	ldp	x18, x19, [sp,#144]
ffff0000000021b4:	a94a57f4 	ldp	x20, x21, [sp,#160]
ffff0000000021b8:	a94b5ff6 	ldp	x22, x23, [sp,#176]
ffff0000000021bc:	a94c67f8 	ldp	x24, x25, [sp,#192]
ffff0000000021c0:	a94d6ffa 	ldp	x26, x27, [sp,#208]
ffff0000000021c4:	a94e77fc 	ldp	x28, x29, [sp,#224]
ffff0000000021c8:	910443ff 	add	sp, sp, #0x110
ffff0000000021cc:	d69f03e0 	eret

ffff0000000021d0 <_lower_el_aarch64_irq>:
ffff0000000021d0:	d10443ff 	sub	sp, sp, #0x110
ffff0000000021d4:	a90007e0 	stp	x0, x1, [sp]
ffff0000000021d8:	a9010fe2 	stp	x2, x3, [sp,#16]
ffff0000000021dc:	a90217e4 	stp	x4, x5, [sp,#32]
ffff0000000021e0:	a9031fe6 	stp	x6, x7, [sp,#48]
ffff0000000021e4:	a90427e8 	stp	x8, x9, [sp,#64]
ffff0000000021e8:	a9052fea 	stp	x10, x11, [sp,#80]
ffff0000000021ec:	a90637ec 	stp	x12, x13, [sp,#96]
ffff0000000021f0:	a9073fee 	stp	x14, x15, [sp,#112]
ffff0000000021f4:	a90847f0 	stp	x16, x17, [sp,#128]
ffff0000000021f8:	a9094ff2 	stp	x18, x19, [sp,#144]
ffff0000000021fc:	a90a57f4 	stp	x20, x21, [sp,#160]
ffff000000002200:	a90b5ff6 	stp	x22, x23, [sp,#176]
ffff000000002204:	a90c67f8 	stp	x24, x25, [sp,#192]
ffff000000002208:	a90d6ffa 	stp	x26, x27, [sp,#208]
ffff00000000220c:	a90e77fc 	stp	x28, x29, [sp,#224]
ffff000000002210:	d5384115 	mrs	x21, sp_el0
ffff000000002214:	d5384036 	mrs	x22, elr_el1
ffff000000002218:	d5384017 	mrs	x23, spsr_el1
ffff00000000221c:	a90f57fe 	stp	x30, x21, [sp,#240]
ffff000000002220:	a9105ff6 	stp	x22, x23, [sp,#256]
ffff000000002224:	97fffa4b 	bl	ffff000000000b50 <irq_dispatch>
ffff000000002228:	94000212 	bl	ffff000000002a70 <schedule>
ffff00000000222c:	a9505ff6 	ldp	x22, x23, [sp,#256]
ffff000000002230:	a94f57fe 	ldp	x30, x21, [sp,#240]
ffff000000002234:	d5184115 	msr	sp_el0, x21
ffff000000002238:	d5184036 	msr	elr_el1, x22
ffff00000000223c:	d5184017 	msr	spsr_el1, x23
ffff000000002240:	a94007e0 	ldp	x0, x1, [sp]
ffff000000002244:	a9410fe2 	ldp	x2, x3, [sp,#16]
ffff000000002248:	a94217e4 	ldp	x4, x5, [sp,#32]
ffff00000000224c:	a9431fe6 	ldp	x6, x7, [sp,#48]
ffff000000002250:	a94427e8 	ldp	x8, x9, [sp,#64]
ffff000000002254:	a9452fea 	ldp	x10, x11, [sp,#80]
ffff000000002258:	a94637ec 	ldp	x12, x13, [sp,#96]
ffff00000000225c:	a9473fee 	ldp	x14, x15, [sp,#112]
ffff000000002260:	a94847f0 	ldp	x16, x17, [sp,#128]
ffff000000002264:	a9494ff2 	ldp	x18, x19, [sp,#144]
ffff000000002268:	a94a57f4 	ldp	x20, x21, [sp,#160]
ffff00000000226c:	a94b5ff6 	ldp	x22, x23, [sp,#176]
ffff000000002270:	a94c67f8 	ldp	x24, x25, [sp,#192]
ffff000000002274:	a94d6ffa 	ldp	x26, x27, [sp,#208]
ffff000000002278:	a94e77fc 	ldp	x28, x29, [sp,#224]
ffff00000000227c:	910443ff 	add	sp, sp, #0x110
ffff000000002280:	d69f03e0 	eret

ffff000000002284 <_lower_el_aarch64_fiq>:
ffff000000002284:	d2800140 	mov	x0, #0xa                   	// #10
ffff000000002288:	97fffa47 	bl	ffff000000000ba4 <put_exception>

ffff00000000228c <_lower_el_aarch64_serror>:
ffff00000000228c:	d2800160 	mov	x0, #0xb                   	// #11
ffff000000002290:	97fffa45 	bl	ffff000000000ba4 <put_exception>

ffff000000002294 <_lower_el_aarch32_sync>:
ffff000000002294:	d2800180 	mov	x0, #0xc                   	// #12
ffff000000002298:	97fffa43 	bl	ffff000000000ba4 <put_exception>

ffff00000000229c <_lower_el_aarch32_irq>:
ffff00000000229c:	d28001a0 	mov	x0, #0xd                   	// #13
ffff0000000022a0:	97fffa41 	bl	ffff000000000ba4 <put_exception>

ffff0000000022a4 <_lower_el_aarch32_fiq>:
ffff0000000022a4:	d28001c0 	mov	x0, #0xe                   	// #14
ffff0000000022a8:	97fffa3f 	bl	ffff000000000ba4 <put_exception>

ffff0000000022ac <_lower_el_aarch32_serror>:
ffff0000000022ac:	d28001e0 	mov	x0, #0xf                   	// #15
ffff0000000022b0:	97fffa3d 	bl	ffff000000000ba4 <put_exception>

ffff0000000022b4 <cpu_switch_to>:
ffff0000000022b4:	d280000a 	mov	x10, #0x0                   	// #0
ffff0000000022b8:	8b0a0008 	add	x8, x0, x10
ffff0000000022bc:	910003e9 	mov	x9, sp
ffff0000000022c0:	a8815113 	stp	x19, x20, [x8],#16
ffff0000000022c4:	a8815915 	stp	x21, x22, [x8],#16
ffff0000000022c8:	a8816117 	stp	x23, x24, [x8],#16
ffff0000000022cc:	a8816919 	stp	x25, x26, [x8],#16
ffff0000000022d0:	a881711b 	stp	x27, x28, [x8],#16
ffff0000000022d4:	a881251d 	stp	x29, x9, [x8],#16
ffff0000000022d8:	f900011e 	str	x30, [x8]
ffff0000000022dc:	8b0a0028 	add	x8, x1, x10
ffff0000000022e0:	a8c15113 	ldp	x19, x20, [x8],#16
ffff0000000022e4:	a8c15915 	ldp	x21, x22, [x8],#16
ffff0000000022e8:	a8c16117 	ldp	x23, x24, [x8],#16
ffff0000000022ec:	a8c16919 	ldp	x25, x26, [x8],#16
ffff0000000022f0:	a8c1711b 	ldp	x27, x28, [x8],#16
ffff0000000022f4:	a8c1251d 	ldp	x29, x9, [x8],#16
ffff0000000022f8:	f940011e 	ldr	x30, [x8]
ffff0000000022fc:	9100013f 	mov	sp, x9
ffff000000002300:	d65f03c0 	ret
ffff000000002304:	00000000 	.word	0x00000000
ffff000000002308:	00006198 	.word	0x00006198
ffff00000000230c:	ffff0000 	.word	0xffff0000
ffff000000002310:	d503201f 	nop
ffff000000002314:	d503201f 	nop
ffff000000002318:	d503201f 	nop
ffff00000000231c:	d503201f 	nop
ffff000000002320:	d503201f 	nop
ffff000000002324:	d503201f 	nop
ffff000000002328:	d503201f 	nop
ffff00000000232c:	d503201f 	nop
ffff000000002330:	d503201f 	nop
ffff000000002334:	d503201f 	nop
ffff000000002338:	d503201f 	nop
ffff00000000233c:	d503201f 	nop
ffff000000002340:	d503201f 	nop
ffff000000002344:	d503201f 	nop
ffff000000002348:	d503201f 	nop
ffff00000000234c:	d503201f 	nop
ffff000000002350:	d503201f 	nop
ffff000000002354:	d503201f 	nop
ffff000000002358:	d503201f 	nop
ffff00000000235c:	d503201f 	nop
ffff000000002360:	d503201f 	nop
ffff000000002364:	d503201f 	nop
ffff000000002368:	d503201f 	nop
ffff00000000236c:	d503201f 	nop
ffff000000002370:	d503201f 	nop
ffff000000002374:	d503201f 	nop
ffff000000002378:	d503201f 	nop
ffff00000000237c:	d503201f 	nop
ffff000000002380:	d503201f 	nop
ffff000000002384:	d503201f 	nop
ffff000000002388:	d503201f 	nop
ffff00000000238c:	d503201f 	nop
ffff000000002390:	d503201f 	nop
ffff000000002394:	d503201f 	nop
ffff000000002398:	d503201f 	nop
ffff00000000239c:	d503201f 	nop
ffff0000000023a0:	d503201f 	nop
ffff0000000023a4:	d503201f 	nop
ffff0000000023a8:	d503201f 	nop
ffff0000000023ac:	d503201f 	nop
ffff0000000023b0:	d503201f 	nop
ffff0000000023b4:	d503201f 	nop
ffff0000000023b8:	d503201f 	nop
ffff0000000023bc:	d503201f 	nop
ffff0000000023c0:	d503201f 	nop
ffff0000000023c4:	d503201f 	nop
ffff0000000023c8:	d503201f 	nop
ffff0000000023cc:	d503201f 	nop
ffff0000000023d0:	d503201f 	nop
ffff0000000023d4:	d503201f 	nop
ffff0000000023d8:	d503201f 	nop
ffff0000000023dc:	d503201f 	nop
ffff0000000023e0:	d503201f 	nop
ffff0000000023e4:	d503201f 	nop
ffff0000000023e8:	d503201f 	nop
ffff0000000023ec:	d503201f 	nop
ffff0000000023f0:	d503201f 	nop
ffff0000000023f4:	d503201f 	nop
ffff0000000023f8:	d503201f 	nop
ffff0000000023fc:	d503201f 	nop
ffff000000002400:	d503201f 	nop
ffff000000002404:	d503201f 	nop
ffff000000002408:	d503201f 	nop
ffff00000000240c:	d503201f 	nop
ffff000000002410:	d503201f 	nop
ffff000000002414:	d503201f 	nop
ffff000000002418:	d503201f 	nop
ffff00000000241c:	d503201f 	nop
ffff000000002420:	d503201f 	nop
ffff000000002424:	d503201f 	nop
ffff000000002428:	d503201f 	nop
ffff00000000242c:	d503201f 	nop
ffff000000002430:	d503201f 	nop
ffff000000002434:	d503201f 	nop
ffff000000002438:	d503201f 	nop
ffff00000000243c:	d503201f 	nop
ffff000000002440:	d503201f 	nop
ffff000000002444:	d503201f 	nop
ffff000000002448:	d503201f 	nop
ffff00000000244c:	d503201f 	nop
ffff000000002450:	d503201f 	nop
ffff000000002454:	d503201f 	nop
ffff000000002458:	d503201f 	nop
ffff00000000245c:	d503201f 	nop
ffff000000002460:	d503201f 	nop
ffff000000002464:	d503201f 	nop
ffff000000002468:	d503201f 	nop
ffff00000000246c:	d503201f 	nop
ffff000000002470:	d503201f 	nop
ffff000000002474:	d503201f 	nop
ffff000000002478:	d503201f 	nop
ffff00000000247c:	d503201f 	nop
ffff000000002480:	d503201f 	nop
ffff000000002484:	d503201f 	nop
ffff000000002488:	d503201f 	nop
ffff00000000248c:	d503201f 	nop
ffff000000002490:	d503201f 	nop
ffff000000002494:	d503201f 	nop
ffff000000002498:	d503201f 	nop
ffff00000000249c:	d503201f 	nop
ffff0000000024a0:	d503201f 	nop
ffff0000000024a4:	d503201f 	nop
ffff0000000024a8:	d503201f 	nop
ffff0000000024ac:	d503201f 	nop
ffff0000000024b0:	d503201f 	nop
ffff0000000024b4:	d503201f 	nop
ffff0000000024b8:	d503201f 	nop
ffff0000000024bc:	d503201f 	nop
ffff0000000024c0:	d503201f 	nop
ffff0000000024c4:	d503201f 	nop
ffff0000000024c8:	d503201f 	nop
ffff0000000024cc:	d503201f 	nop
ffff0000000024d0:	d503201f 	nop
ffff0000000024d4:	d503201f 	nop
ffff0000000024d8:	d503201f 	nop
ffff0000000024dc:	d503201f 	nop
ffff0000000024e0:	d503201f 	nop
ffff0000000024e4:	d503201f 	nop
ffff0000000024e8:	d503201f 	nop
ffff0000000024ec:	d503201f 	nop
ffff0000000024f0:	d503201f 	nop
ffff0000000024f4:	d503201f 	nop
ffff0000000024f8:	d503201f 	nop
ffff0000000024fc:	d503201f 	nop
ffff000000002500:	d503201f 	nop
ffff000000002504:	d503201f 	nop
ffff000000002508:	d503201f 	nop
ffff00000000250c:	d503201f 	nop
ffff000000002510:	d503201f 	nop
ffff000000002514:	d503201f 	nop
ffff000000002518:	d503201f 	nop
ffff00000000251c:	d503201f 	nop
ffff000000002520:	d503201f 	nop
ffff000000002524:	d503201f 	nop
ffff000000002528:	d503201f 	nop
ffff00000000252c:	d503201f 	nop
ffff000000002530:	d503201f 	nop
ffff000000002534:	d503201f 	nop
ffff000000002538:	d503201f 	nop
ffff00000000253c:	d503201f 	nop
ffff000000002540:	d503201f 	nop
ffff000000002544:	d503201f 	nop
ffff000000002548:	d503201f 	nop
ffff00000000254c:	d503201f 	nop
ffff000000002550:	d503201f 	nop
ffff000000002554:	d503201f 	nop
ffff000000002558:	d503201f 	nop
ffff00000000255c:	d503201f 	nop
ffff000000002560:	d503201f 	nop
ffff000000002564:	d503201f 	nop
ffff000000002568:	d503201f 	nop
ffff00000000256c:	d503201f 	nop
ffff000000002570:	d503201f 	nop
ffff000000002574:	d503201f 	nop
ffff000000002578:	d503201f 	nop
ffff00000000257c:	d503201f 	nop
ffff000000002580:	d503201f 	nop
ffff000000002584:	d503201f 	nop
ffff000000002588:	d503201f 	nop
ffff00000000258c:	d503201f 	nop
ffff000000002590:	d503201f 	nop
ffff000000002594:	d503201f 	nop
ffff000000002598:	d503201f 	nop
ffff00000000259c:	d503201f 	nop
ffff0000000025a0:	d503201f 	nop
ffff0000000025a4:	d503201f 	nop
ffff0000000025a8:	d503201f 	nop
ffff0000000025ac:	d503201f 	nop
ffff0000000025b0:	d503201f 	nop
ffff0000000025b4:	d503201f 	nop
ffff0000000025b8:	d503201f 	nop
ffff0000000025bc:	d503201f 	nop
ffff0000000025c0:	d503201f 	nop
ffff0000000025c4:	d503201f 	nop
ffff0000000025c8:	d503201f 	nop
ffff0000000025cc:	d503201f 	nop
ffff0000000025d0:	d503201f 	nop
ffff0000000025d4:	d503201f 	nop
ffff0000000025d8:	d503201f 	nop
ffff0000000025dc:	d503201f 	nop
ffff0000000025e0:	d503201f 	nop
ffff0000000025e4:	d503201f 	nop
ffff0000000025e8:	d503201f 	nop
ffff0000000025ec:	d503201f 	nop
ffff0000000025f0:	d503201f 	nop
ffff0000000025f4:	d503201f 	nop
ffff0000000025f8:	d503201f 	nop
ffff0000000025fc:	d503201f 	nop
ffff000000002600:	d503201f 	nop
ffff000000002604:	d503201f 	nop
ffff000000002608:	d503201f 	nop
ffff00000000260c:	d503201f 	nop
ffff000000002610:	d503201f 	nop
ffff000000002614:	d503201f 	nop
ffff000000002618:	d503201f 	nop
ffff00000000261c:	d503201f 	nop
ffff000000002620:	d503201f 	nop
ffff000000002624:	d503201f 	nop
ffff000000002628:	d503201f 	nop
ffff00000000262c:	d503201f 	nop
ffff000000002630:	d503201f 	nop
ffff000000002634:	d503201f 	nop
ffff000000002638:	d503201f 	nop
ffff00000000263c:	d503201f 	nop
ffff000000002640:	d503201f 	nop
ffff000000002644:	d503201f 	nop
ffff000000002648:	d503201f 	nop
ffff00000000264c:	d503201f 	nop
ffff000000002650:	d503201f 	nop
ffff000000002654:	d503201f 	nop
ffff000000002658:	d503201f 	nop
ffff00000000265c:	d503201f 	nop
ffff000000002660:	d503201f 	nop
ffff000000002664:	d503201f 	nop
ffff000000002668:	d503201f 	nop
ffff00000000266c:	d503201f 	nop
ffff000000002670:	d503201f 	nop
ffff000000002674:	d503201f 	nop
ffff000000002678:	d503201f 	nop
ffff00000000267c:	d503201f 	nop
ffff000000002680:	d503201f 	nop
ffff000000002684:	d503201f 	nop
ffff000000002688:	d503201f 	nop
ffff00000000268c:	d503201f 	nop
ffff000000002690:	d503201f 	nop
ffff000000002694:	d503201f 	nop
ffff000000002698:	d503201f 	nop
ffff00000000269c:	d503201f 	nop
ffff0000000026a0:	d503201f 	nop
ffff0000000026a4:	d503201f 	nop
ffff0000000026a8:	d503201f 	nop
ffff0000000026ac:	d503201f 	nop
ffff0000000026b0:	d503201f 	nop
ffff0000000026b4:	d503201f 	nop
ffff0000000026b8:	d503201f 	nop
ffff0000000026bc:	d503201f 	nop
ffff0000000026c0:	d503201f 	nop
ffff0000000026c4:	d503201f 	nop
ffff0000000026c8:	d503201f 	nop
ffff0000000026cc:	d503201f 	nop
ffff0000000026d0:	d503201f 	nop
ffff0000000026d4:	d503201f 	nop
ffff0000000026d8:	d503201f 	nop
ffff0000000026dc:	d503201f 	nop
ffff0000000026e0:	d503201f 	nop
ffff0000000026e4:	d503201f 	nop
ffff0000000026e8:	d503201f 	nop
ffff0000000026ec:	d503201f 	nop
ffff0000000026f0:	d503201f 	nop
ffff0000000026f4:	d503201f 	nop
ffff0000000026f8:	d503201f 	nop
ffff0000000026fc:	d503201f 	nop
ffff000000002700:	d503201f 	nop
ffff000000002704:	d503201f 	nop
ffff000000002708:	d503201f 	nop
ffff00000000270c:	d503201f 	nop
ffff000000002710:	d503201f 	nop
ffff000000002714:	d503201f 	nop
ffff000000002718:	d503201f 	nop
ffff00000000271c:	d503201f 	nop
ffff000000002720:	d503201f 	nop
ffff000000002724:	d503201f 	nop
ffff000000002728:	d503201f 	nop
ffff00000000272c:	d503201f 	nop
ffff000000002730:	d503201f 	nop
ffff000000002734:	d503201f 	nop
ffff000000002738:	d503201f 	nop
ffff00000000273c:	d503201f 	nop
ffff000000002740:	d503201f 	nop
ffff000000002744:	d503201f 	nop
ffff000000002748:	d503201f 	nop
ffff00000000274c:	d503201f 	nop
ffff000000002750:	d503201f 	nop
ffff000000002754:	d503201f 	nop
ffff000000002758:	d503201f 	nop
ffff00000000275c:	d503201f 	nop
ffff000000002760:	d503201f 	nop
ffff000000002764:	d503201f 	nop
ffff000000002768:	d503201f 	nop
ffff00000000276c:	d503201f 	nop
ffff000000002770:	d503201f 	nop
ffff000000002774:	d503201f 	nop
ffff000000002778:	d503201f 	nop
ffff00000000277c:	d503201f 	nop
ffff000000002780:	d503201f 	nop
ffff000000002784:	d503201f 	nop
ffff000000002788:	d503201f 	nop
ffff00000000278c:	d503201f 	nop
ffff000000002790:	d503201f 	nop
ffff000000002794:	d503201f 	nop
ffff000000002798:	d503201f 	nop
ffff00000000279c:	d503201f 	nop
ffff0000000027a0:	d503201f 	nop
ffff0000000027a4:	d503201f 	nop
ffff0000000027a8:	d503201f 	nop
ffff0000000027ac:	d503201f 	nop
ffff0000000027b0:	d503201f 	nop
ffff0000000027b4:	d503201f 	nop
ffff0000000027b8:	d503201f 	nop
ffff0000000027bc:	d503201f 	nop
ffff0000000027c0:	d503201f 	nop
ffff0000000027c4:	d503201f 	nop
ffff0000000027c8:	d503201f 	nop
ffff0000000027cc:	d503201f 	nop
ffff0000000027d0:	d503201f 	nop
ffff0000000027d4:	d503201f 	nop
ffff0000000027d8:	d503201f 	nop
ffff0000000027dc:	d503201f 	nop
ffff0000000027e0:	d503201f 	nop
ffff0000000027e4:	d503201f 	nop
ffff0000000027e8:	d503201f 	nop
ffff0000000027ec:	d503201f 	nop
ffff0000000027f0:	d503201f 	nop
ffff0000000027f4:	d503201f 	nop
ffff0000000027f8:	d503201f 	nop
ffff0000000027fc:	d503201f 	nop

ffff000000002800 <idle_main>:
ffff000000002800:	a9bf7bfd 	stp	x29, x30, [sp,#-16]!
ffff000000002804:	910003fd 	mov	x29, sp
ffff000000002808:	90000000 	adrp	x0, ffff000000002000 <_curr_el_spx_irq+0x54>
ffff00000000280c:	91209000 	add	x0, x0, #0x824
ffff000000002810:	97fff9ff 	bl	ffff00000000100c <call_sys_fork>
ffff000000002814:	90000020 	adrp	x0, ffff000000006000 <__init_stack_top>
ffff000000002818:	91010000 	add	x0, x0, #0x40
ffff00000000281c:	97fff9f9 	bl	ffff000000001000 <call_sys_write>
ffff000000002820:	17fffffd 	b	ffff000000002814 <idle_main+0x14>

ffff000000002824 <task0_main>:
ffff000000002824:	a9bf7bfd 	stp	x29, x30, [sp,#-16]!
ffff000000002828:	910003fd 	mov	x29, sp
ffff00000000282c:	90000020 	adrp	x0, ffff000000006000 <__init_stack_top>
ffff000000002830:	91012000 	add	x0, x0, #0x48
ffff000000002834:	97fff9f3 	bl	ffff000000001000 <call_sys_write>
ffff000000002838:	17fffffd 	b	ffff00000000282c <task0_main+0x8>

ffff00000000283c <init_main>:
ffff00000000283c:	a9bf7bfd 	stp	x29, x30, [sp,#-16]!
ffff000000002840:	910003fd 	mov	x29, sp
ffff000000002844:	52800c21 	mov	w1, #0x61                  	// #97
ffff000000002848:	d2800000 	mov	x0, #0x0                   	// #0
ffff00000000284c:	94000208 	bl	ffff00000000306c <putc>
ffff000000002850:	97fff65a 	bl	ffff0000000001b8 <disable_irq>
ffff000000002854:	b0000000 	adrp	x0, ffff000000003000 <memset+0x44>
ffff000000002858:	9101b000 	add	x0, x0, #0x6c
ffff00000000285c:	aa0003e1 	mov	x1, x0
ffff000000002860:	d2800000 	mov	x0, #0x0                   	// #0
ffff000000002864:	94000587 	bl	ffff000000003e80 <init_printf>
ffff000000002868:	97fff89e 	bl	ffff000000000ae0 <timer_init>
ffff00000000286c:	90000000 	adrp	x0, ffff000000002000 <_curr_el_spx_irq+0x54>
ffff000000002870:	91200000 	add	x0, x0, #0x800
ffff000000002874:	aa0003e1 	mov	x1, x0
ffff000000002878:	d2800020 	mov	x0, #0x1                   	// #1
ffff00000000287c:	940000b9 	bl	ffff000000002b60 <copy_process>
ffff000000002880:	97fff642 	bl	ffff000000000188 <enable_irq>
ffff000000002884:	9400007b 	bl	ffff000000002a70 <schedule>
ffff000000002888:	17ffffff 	b	ffff000000002884 <init_main+0x48>

ffff00000000288c <preempt_disable>:
ffff00000000288c:	d10043ff 	sub	sp, sp, #0x10
ffff000000002890:	910003e0 	mov	x0, sp
ffff000000002894:	f90007e0 	str	x0, [sp,#8]
ffff000000002898:	f94007e0 	ldr	x0, [sp,#8]
ffff00000000289c:	9274cc00 	and	x0, x0, #0xfffffffffffff000
ffff0000000028a0:	f9403801 	ldr	x1, [x0,#112]
ffff0000000028a4:	91000421 	add	x1, x1, #0x1
ffff0000000028a8:	f9003801 	str	x1, [x0,#112]
ffff0000000028ac:	d503201f 	nop
ffff0000000028b0:	910043ff 	add	sp, sp, #0x10
ffff0000000028b4:	d65f03c0 	ret

ffff0000000028b8 <preempt_enable>:
ffff0000000028b8:	d10043ff 	sub	sp, sp, #0x10
ffff0000000028bc:	910003e0 	mov	x0, sp
ffff0000000028c0:	f90007e0 	str	x0, [sp,#8]
ffff0000000028c4:	f94007e0 	ldr	x0, [sp,#8]
ffff0000000028c8:	9274cc00 	and	x0, x0, #0xfffffffffffff000
ffff0000000028cc:	f9403801 	ldr	x1, [x0,#112]
ffff0000000028d0:	d1000421 	sub	x1, x1, #0x1
ffff0000000028d4:	f9003801 	str	x1, [x0,#112]
ffff0000000028d8:	d503201f 	nop
ffff0000000028dc:	910043ff 	add	sp, sp, #0x10
ffff0000000028e0:	d65f03c0 	ret

ffff0000000028e4 <switch_to>:
ffff0000000028e4:	a9bc7bfd 	stp	x29, x30, [sp,#-64]!
ffff0000000028e8:	910003fd 	mov	x29, sp
ffff0000000028ec:	f9000fa0 	str	x0, [x29,#24]
ffff0000000028f0:	910003e0 	mov	x0, sp
ffff0000000028f4:	f9001ba0 	str	x0, [x29,#48]
ffff0000000028f8:	f9401ba0 	ldr	x0, [x29,#48]
ffff0000000028fc:	9274cc00 	and	x0, x0, #0xfffffffffffff000
ffff000000002900:	f9001fa0 	str	x0, [x29,#56]
ffff000000002904:	97ffffe2 	bl	ffff00000000288c <preempt_disable>
ffff000000002908:	910003e0 	mov	x0, sp
ffff00000000290c:	f90017a0 	str	x0, [x29,#40]
ffff000000002910:	f94017a0 	ldr	x0, [x29,#40]
ffff000000002914:	9274cc00 	and	x0, x0, #0xfffffffffffff000
ffff000000002918:	aa0003e1 	mov	x1, x0
ffff00000000291c:	f9400fa0 	ldr	x0, [x29,#24]
ffff000000002920:	eb00003f 	cmp	x1, x0
ffff000000002924:	54000160 	b.eq	ffff000000002950 <switch_to+0x6c>
ffff000000002928:	f9400fa0 	ldr	x0, [x29,#24]
ffff00000000292c:	f100001f 	cmp	x0, #0x0
ffff000000002930:	54000100 	b.eq	ffff000000002950 <switch_to+0x6c>
ffff000000002934:	f9400fa0 	ldr	x0, [x29,#24]
ffff000000002938:	b9406800 	ldr	w0, [x0,#104]
ffff00000000293c:	7100041f 	cmp	w0, #0x1
ffff000000002940:	54000081 	b.ne	ffff000000002950 <switch_to+0x6c>
ffff000000002944:	f9400fa1 	ldr	x1, [x29,#24]
ffff000000002948:	f9401fa0 	ldr	x0, [x29,#56]
ffff00000000294c:	97fffe5a 	bl	ffff0000000022b4 <cpu_switch_to>
ffff000000002950:	97ffffda 	bl	ffff0000000028b8 <preempt_enable>
ffff000000002954:	d503201f 	nop
ffff000000002958:	a8c47bfd 	ldp	x29, x30, [sp],#64
ffff00000000295c:	d65f03c0 	ret

ffff000000002960 <select_next_task>:
ffff000000002960:	a9be7bfd 	stp	x29, x30, [sp,#-32]!
ffff000000002964:	910003fd 	mov	x29, sp
ffff000000002968:	b9001fbf 	str	wzr, [x29,#28]
ffff00000000296c:	97ffffc8 	bl	ffff00000000288c <preempt_disable>
ffff000000002970:	b9001fbf 	str	wzr, [x29,#28]
ffff000000002974:	14000024 	b	ffff000000002a04 <select_next_task+0xa4>
ffff000000002978:	90000040 	adrp	x0, ffff00000000a000 <pg_tbl_end>
ffff00000000297c:	91002000 	add	x0, x0, #0x8
ffff000000002980:	b9801fa1 	ldrsw	x1, [x29,#28]
ffff000000002984:	f8617800 	ldr	x0, [x0,x1,lsl #3]
ffff000000002988:	f100001f 	cmp	x0, #0x0
ffff00000000298c:	54000360 	b.eq	ffff0000000029f8 <select_next_task+0x98>
ffff000000002990:	90000040 	adrp	x0, ffff00000000a000 <pg_tbl_end>
ffff000000002994:	91002000 	add	x0, x0, #0x8
ffff000000002998:	b9801fa1 	ldrsw	x1, [x29,#28]
ffff00000000299c:	f8617800 	ldr	x0, [x0,x1,lsl #3]
ffff0000000029a0:	b9406800 	ldr	w0, [x0,#104]
ffff0000000029a4:	7100041f 	cmp	w0, #0x1
ffff0000000029a8:	54000281 	b.ne	ffff0000000029f8 <select_next_task+0x98>
ffff0000000029ac:	910003e0 	mov	x0, sp
ffff0000000029b0:	f9000ba0 	str	x0, [x29,#16]
ffff0000000029b4:	f9400ba0 	ldr	x0, [x29,#16]
ffff0000000029b8:	9274cc00 	and	x0, x0, #0xfffffffffffff000
ffff0000000029bc:	aa0003e2 	mov	x2, x0
ffff0000000029c0:	90000040 	adrp	x0, ffff00000000a000 <pg_tbl_end>
ffff0000000029c4:	91002000 	add	x0, x0, #0x8
ffff0000000029c8:	b9801fa1 	ldrsw	x1, [x29,#28]
ffff0000000029cc:	f8617800 	ldr	x0, [x0,x1,lsl #3]
ffff0000000029d0:	eb00005f 	cmp	x2, x0
ffff0000000029d4:	54000120 	b.eq	ffff0000000029f8 <select_next_task+0x98>
ffff0000000029d8:	90000040 	adrp	x0, ffff00000000a000 <pg_tbl_end>
ffff0000000029dc:	91002000 	add	x0, x0, #0x8
ffff0000000029e0:	b9801fa1 	ldrsw	x1, [x29,#28]
ffff0000000029e4:	f8617801 	ldr	x1, [x0,x1,lsl #3]
ffff0000000029e8:	90000040 	adrp	x0, ffff00000000a000 <pg_tbl_end>
ffff0000000029ec:	91042000 	add	x0, x0, #0x108
ffff0000000029f0:	f9000001 	str	x1, [x0]
ffff0000000029f4:	14000007 	b	ffff000000002a10 <select_next_task+0xb0>
ffff0000000029f8:	b9401fa0 	ldr	w0, [x29,#28]
ffff0000000029fc:	11000400 	add	w0, w0, #0x1
ffff000000002a00:	b9001fa0 	str	w0, [x29,#28]
ffff000000002a04:	b9401fa0 	ldr	w0, [x29,#28]
ffff000000002a08:	71007c1f 	cmp	w0, #0x1f
ffff000000002a0c:	54fffb6d 	b.le	ffff000000002978 <select_next_task+0x18>
ffff000000002a10:	97ffffaa 	bl	ffff0000000028b8 <preempt_enable>
ffff000000002a14:	d503201f 	nop
ffff000000002a18:	a8c27bfd 	ldp	x29, x30, [sp],#32
ffff000000002a1c:	d65f03c0 	ret

ffff000000002a20 <scheduler_tick>:
ffff000000002a20:	a9be7bfd 	stp	x29, x30, [sp,#-32]!
ffff000000002a24:	910003fd 	mov	x29, sp
ffff000000002a28:	910003e0 	mov	x0, sp
ffff000000002a2c:	f9000fa0 	str	x0, [x29,#24]
ffff000000002a30:	f9400fa0 	ldr	x0, [x29,#24]
ffff000000002a34:	9274cc00 	and	x0, x0, #0xfffffffffffff000
ffff000000002a38:	f9403800 	ldr	x0, [x0,#112]
ffff000000002a3c:	f100001f 	cmp	x0, #0x0
ffff000000002a40:	54000121 	b.ne	ffff000000002a64 <scheduler_tick+0x44>
ffff000000002a44:	97ffffc7 	bl	ffff000000002960 <select_next_task>
ffff000000002a48:	97fff5d0 	bl	ffff000000000188 <enable_irq>
ffff000000002a4c:	90000040 	adrp	x0, ffff00000000a000 <pg_tbl_end>
ffff000000002a50:	91042000 	add	x0, x0, #0x108
ffff000000002a54:	f9400000 	ldr	x0, [x0]
ffff000000002a58:	97ffffa3 	bl	ffff0000000028e4 <switch_to>
ffff000000002a5c:	97fff5d7 	bl	ffff0000000001b8 <disable_irq>
ffff000000002a60:	14000002 	b	ffff000000002a68 <scheduler_tick+0x48>
ffff000000002a64:	d503201f 	nop
ffff000000002a68:	a8c27bfd 	ldp	x29, x30, [sp],#32
ffff000000002a6c:	d65f03c0 	ret

ffff000000002a70 <schedule>:
ffff000000002a70:	a9bf7bfd 	stp	x29, x30, [sp,#-16]!
ffff000000002a74:	910003fd 	mov	x29, sp
ffff000000002a78:	97ffffba 	bl	ffff000000002960 <select_next_task>
ffff000000002a7c:	90000040 	adrp	x0, ffff00000000a000 <pg_tbl_end>
ffff000000002a80:	91042000 	add	x0, x0, #0x108
ffff000000002a84:	f9400000 	ldr	x0, [x0]
ffff000000002a88:	97ffff97 	bl	ffff0000000028e4 <switch_to>
ffff000000002a8c:	d503201f 	nop
ffff000000002a90:	a8c17bfd 	ldp	x29, x30, [sp],#16
ffff000000002a94:	d65f03c0 	ret

ffff000000002a98 <task_add>:
ffff000000002a98:	a9bd7bfd 	stp	x29, x30, [sp,#-48]!
ffff000000002a9c:	910003fd 	mov	x29, sp
ffff000000002aa0:	f9000fa0 	str	x0, [x29,#24]
ffff000000002aa4:	b9002fbf 	str	wzr, [x29,#44]
ffff000000002aa8:	b9002fbf 	str	wzr, [x29,#44]
ffff000000002aac:	14000021 	b	ffff000000002b30 <task_add+0x98>
ffff000000002ab0:	90000040 	adrp	x0, ffff00000000a000 <pg_tbl_end>
ffff000000002ab4:	91002000 	add	x0, x0, #0x8
ffff000000002ab8:	b9802fa1 	ldrsw	x1, [x29,#44]
ffff000000002abc:	f8617800 	ldr	x0, [x0,x1,lsl #3]
ffff000000002ac0:	f100001f 	cmp	x0, #0x0
ffff000000002ac4:	54000100 	b.eq	ffff000000002ae4 <task_add+0x4c>
ffff000000002ac8:	90000040 	adrp	x0, ffff00000000a000 <pg_tbl_end>
ffff000000002acc:	91002000 	add	x0, x0, #0x8
ffff000000002ad0:	b9802fa1 	ldrsw	x1, [x29,#44]
ffff000000002ad4:	f8617800 	ldr	x0, [x0,x1,lsl #3]
ffff000000002ad8:	b9406800 	ldr	w0, [x0,#104]
ffff000000002adc:	7100001f 	cmp	w0, #0x0
ffff000000002ae0:	54000221 	b.ne	ffff000000002b24 <task_add+0x8c>
ffff000000002ae4:	90000040 	adrp	x0, ffff00000000a000 <pg_tbl_end>
ffff000000002ae8:	91002000 	add	x0, x0, #0x8
ffff000000002aec:	b9802fa1 	ldrsw	x1, [x29,#44]
ffff000000002af0:	f9400fa2 	ldr	x2, [x29,#24]
ffff000000002af4:	f8217802 	str	x2, [x0,x1,lsl #3]
ffff000000002af8:	f9400fa0 	ldr	x0, [x29,#24]
ffff000000002afc:	52800021 	mov	w1, #0x1                   	// #1
ffff000000002b00:	b9006801 	str	w1, [x0,#104]
ffff000000002b04:	90000040 	adrp	x0, ffff00000000a000 <pg_tbl_end>
ffff000000002b08:	91042000 	add	x0, x0, #0x108
ffff000000002b0c:	f9400fa1 	ldr	x1, [x29,#24]
ffff000000002b10:	f9000001 	str	x1, [x0]
ffff000000002b14:	90000020 	adrp	x0, ffff000000006000 <__init_stack_top>
ffff000000002b18:	91014000 	add	x0, x0, #0x50
ffff000000002b1c:	940004e7 	bl	ffff000000003eb8 <tfp_printf>
ffff000000002b20:	1400000e 	b	ffff000000002b58 <task_add+0xc0>
ffff000000002b24:	b9402fa0 	ldr	w0, [x29,#44]
ffff000000002b28:	11000400 	add	w0, w0, #0x1
ffff000000002b2c:	b9002fa0 	str	w0, [x29,#44]
ffff000000002b30:	b9402fa0 	ldr	w0, [x29,#44]
ffff000000002b34:	71007c1f 	cmp	w0, #0x1f
ffff000000002b38:	54fffbcd 	b.le	ffff000000002ab0 <task_add+0x18>
ffff000000002b3c:	b9402fa0 	ldr	w0, [x29,#44]
ffff000000002b40:	7100801f 	cmp	w0, #0x20
ffff000000002b44:	540000a1 	b.ne	ffff000000002b58 <task_add+0xc0>
ffff000000002b48:	90000020 	adrp	x0, ffff000000006000 <__init_stack_top>
ffff000000002b4c:	91018000 	add	x0, x0, #0x60
ffff000000002b50:	940004da 	bl	ffff000000003eb8 <tfp_printf>
ffff000000002b54:	14000000 	b	ffff000000002b54 <task_add+0xbc>
ffff000000002b58:	a8c37bfd 	ldp	x29, x30, [sp],#48
ffff000000002b5c:	d65f03c0 	ret

ffff000000002b60 <copy_process>:
ffff000000002b60:	a9bd7bfd 	stp	x29, x30, [sp,#-48]!
ffff000000002b64:	910003fd 	mov	x29, sp
ffff000000002b68:	f9000fa0 	str	x0, [x29,#24]
ffff000000002b6c:	f9000ba1 	str	x1, [x29,#16]
ffff000000002b70:	f90017bf 	str	xzr, [x29,#40]
ffff000000002b74:	97ffff46 	bl	ffff00000000288c <preempt_disable>
ffff000000002b78:	940000d1 	bl	ffff000000002ebc <get_free_page>
ffff000000002b7c:	f90017a0 	str	x0, [x29,#40]
ffff000000002b80:	f9400ba1 	ldr	x1, [x29,#16]
ffff000000002b84:	f94017a0 	ldr	x0, [x29,#40]
ffff000000002b88:	f9000001 	str	x1, [x0]
ffff000000002b8c:	f94017a0 	ldr	x0, [x29,#40]
ffff000000002b90:	91400401 	add	x1, x0, #0x1, lsl #12
ffff000000002b94:	f94017a0 	ldr	x0, [x29,#40]
ffff000000002b98:	f9002c01 	str	x1, [x0,#88]
ffff000000002b9c:	90000000 	adrp	x0, ffff000000002000 <_curr_el_spx_irq+0x54>
ffff000000002ba0:	9105a001 	add	x1, x0, #0x168
ffff000000002ba4:	f94017a0 	ldr	x0, [x29,#40]
ffff000000002ba8:	f9003001 	str	x1, [x0,#96]
ffff000000002bac:	f94017a0 	ldr	x0, [x29,#40]
ffff000000002bb0:	f900381f 	str	xzr, [x0,#112]
ffff000000002bb4:	f9400fa0 	ldr	x0, [x29,#24]
ffff000000002bb8:	f100041f 	cmp	x0, #0x1
ffff000000002bbc:	54000241 	b.ne	ffff000000002c04 <copy_process+0xa4>
ffff000000002bc0:	f94017a0 	ldr	x0, [x29,#40]
ffff000000002bc4:	913bc000 	add	x0, x0, #0xef0
ffff000000002bc8:	f90013a0 	str	x0, [x29,#32]
ffff000000002bcc:	f94017a0 	ldr	x0, [x29,#40]
ffff000000002bd0:	f900001f 	str	xzr, [x0]
ffff000000002bd4:	f94013a1 	ldr	x1, [x29,#32]
ffff000000002bd8:	f94017a0 	ldr	x0, [x29,#40]
ffff000000002bdc:	f9002c01 	str	x1, [x0,#88]
ffff000000002be0:	940000b7 	bl	ffff000000002ebc <get_free_page>
ffff000000002be4:	91400401 	add	x1, x0, #0x1, lsl #12
ffff000000002be8:	f94013a0 	ldr	x0, [x29,#32]
ffff000000002bec:	f9007c01 	str	x1, [x0,#248]
ffff000000002bf0:	f9400ba1 	ldr	x1, [x29,#16]
ffff000000002bf4:	f94013a0 	ldr	x0, [x29,#32]
ffff000000002bf8:	f9008001 	str	x1, [x0,#256]
ffff000000002bfc:	f94013a0 	ldr	x0, [x29,#32]
ffff000000002c00:	f900841f 	str	xzr, [x0,#264]
ffff000000002c04:	f94017a0 	ldr	x0, [x29,#40]
ffff000000002c08:	97ffffa4 	bl	ffff000000002a98 <task_add>
ffff000000002c0c:	97ffff2b 	bl	ffff0000000028b8 <preempt_enable>
ffff000000002c10:	d503201f 	nop
ffff000000002c14:	a8c37bfd 	ldp	x29, x30, [sp],#48
ffff000000002c18:	d65f03c0 	ret

ffff000000002c1c <delete_self>:
ffff000000002c1c:	a9bd7bfd 	stp	x29, x30, [sp,#-48]!
ffff000000002c20:	910003fd 	mov	x29, sp
ffff000000002c24:	b9002fbf 	str	wzr, [x29,#44]
ffff000000002c28:	b9002fbf 	str	wzr, [x29,#44]
ffff000000002c2c:	14000014 	b	ffff000000002c7c <delete_self+0x60>
ffff000000002c30:	90000040 	adrp	x0, ffff00000000a000 <pg_tbl_end>
ffff000000002c34:	91002000 	add	x0, x0, #0x8
ffff000000002c38:	b9802fa1 	ldrsw	x1, [x29,#44]
ffff000000002c3c:	f8617800 	ldr	x0, [x0,x1,lsl #3]
ffff000000002c40:	910003e1 	mov	x1, sp
ffff000000002c44:	f9000fa1 	str	x1, [x29,#24]
ffff000000002c48:	f9400fa1 	ldr	x1, [x29,#24]
ffff000000002c4c:	9274cc21 	and	x1, x1, #0xfffffffffffff000
ffff000000002c50:	eb01001f 	cmp	x0, x1
ffff000000002c54:	540000e1 	b.ne	ffff000000002c70 <delete_self+0x54>
ffff000000002c58:	90000040 	adrp	x0, ffff00000000a000 <pg_tbl_end>
ffff000000002c5c:	91002000 	add	x0, x0, #0x8
ffff000000002c60:	b9802fa1 	ldrsw	x1, [x29,#44]
ffff000000002c64:	f8617800 	ldr	x0, [x0,x1,lsl #3]
ffff000000002c68:	b900681f 	str	wzr, [x0,#104]
ffff000000002c6c:	14000007 	b	ffff000000002c88 <delete_self+0x6c>
ffff000000002c70:	b9402fa0 	ldr	w0, [x29,#44]
ffff000000002c74:	11000400 	add	w0, w0, #0x1
ffff000000002c78:	b9002fa0 	str	w0, [x29,#44]
ffff000000002c7c:	b9402fa0 	ldr	w0, [x29,#44]
ffff000000002c80:	71007c1f 	cmp	w0, #0x1f
ffff000000002c84:	54fffd6d 	b.le	ffff000000002c30 <delete_self+0x14>
ffff000000002c88:	910003e0 	mov	x0, sp
ffff000000002c8c:	f90013a0 	str	x0, [x29,#32]
ffff000000002c90:	f94013a0 	ldr	x0, [x29,#32]
ffff000000002c94:	9274cc00 	and	x0, x0, #0xfffffffffffff000
ffff000000002c98:	940000ae 	bl	ffff000000002f50 <free_page>
ffff000000002c9c:	97ffff75 	bl	ffff000000002a70 <schedule>
ffff000000002ca0:	d503201f 	nop
ffff000000002ca4:	a8c37bfd 	ldp	x29, x30, [sp],#48
ffff000000002ca8:	d65f03c0 	ret

ffff000000002cac <sys_write>:
ffff000000002cac:	a9be7bfd 	stp	x29, x30, [sp,#-32]!
ffff000000002cb0:	910003fd 	mov	x29, sp
ffff000000002cb4:	f9000fa0 	str	x0, [x29,#24]
ffff000000002cb8:	90000020 	adrp	x0, ffff000000006000 <__init_stack_top>
ffff000000002cbc:	91022000 	add	x0, x0, #0x88
ffff000000002cc0:	f9400fa1 	ldr	x1, [x29,#24]
ffff000000002cc4:	9400047d 	bl	ffff000000003eb8 <tfp_printf>
ffff000000002cc8:	d503201f 	nop
ffff000000002ccc:	a8c27bfd 	ldp	x29, x30, [sp],#32
ffff000000002cd0:	d65f03c0 	ret

ffff000000002cd4 <sys_fork>:
ffff000000002cd4:	a9be7bfd 	stp	x29, x30, [sp,#-32]!
ffff000000002cd8:	910003fd 	mov	x29, sp
ffff000000002cdc:	f9000fa0 	str	x0, [x29,#24]
ffff000000002ce0:	f9400fa1 	ldr	x1, [x29,#24]
ffff000000002ce4:	d2800020 	mov	x0, #0x1                   	// #1
ffff000000002ce8:	97ffff9e 	bl	ffff000000002b60 <copy_process>
ffff000000002cec:	d503201f 	nop
ffff000000002cf0:	a8c27bfd 	ldp	x29, x30, [sp],#32
ffff000000002cf4:	d65f03c0 	ret

ffff000000002cf8 <sys_malloc>:
ffff000000002cf8:	d503201f 	nop
ffff000000002cfc:	d65f03c0 	ret

ffff000000002d00 <sys_exit>:
ffff000000002d00:	d503201f 	nop
ffff000000002d04:	d65f03c0 	ret

ffff000000002d08 <timer_add>:
ffff000000002d08:	a9bd7bfd 	stp	x29, x30, [sp,#-48]!
ffff000000002d0c:	910003fd 	mov	x29, sp
ffff000000002d10:	f9000fa0 	str	x0, [x29,#24]
ffff000000002d14:	f9000ba1 	str	x1, [x29,#16]
ffff000000002d18:	f90013bf 	str	xzr, [x29,#32]
ffff000000002d1c:	b9002fbf 	str	wzr, [x29,#44]
ffff000000002d20:	52800200 	mov	w0, #0x10                  	// #16
ffff000000002d24:	9400011b 	bl	ffff000000003190 <kmalloc>
ffff000000002d28:	f90013a0 	str	x0, [x29,#32]
ffff000000002d2c:	90000040 	adrp	x0, ffff00000000a000 <pg_tbl_end>
ffff000000002d30:	91000000 	add	x0, x0, #0x0
ffff000000002d34:	f9400001 	ldr	x1, [x0]
ffff000000002d38:	f9400fa0 	ldr	x0, [x29,#24]
ffff000000002d3c:	8b000021 	add	x1, x1, x0
ffff000000002d40:	f94013a0 	ldr	x0, [x29,#32]
ffff000000002d44:	f9000001 	str	x1, [x0]
ffff000000002d48:	f94013a0 	ldr	x0, [x29,#32]
ffff000000002d4c:	f9400ba1 	ldr	x1, [x29,#16]
ffff000000002d50:	f9000401 	str	x1, [x0,#8]
ffff000000002d54:	b9002fbf 	str	wzr, [x29,#44]
ffff000000002d58:	1400000f 	b	ffff000000002d94 <timer_add+0x8c>
ffff000000002d5c:	90000040 	adrp	x0, ffff00000000a000 <pg_tbl_end>
ffff000000002d60:	91044000 	add	x0, x0, #0x110
ffff000000002d64:	b9802fa1 	ldrsw	x1, [x29,#44]
ffff000000002d68:	f8617800 	ldr	x0, [x0,x1,lsl #3]
ffff000000002d6c:	f100001f 	cmp	x0, #0x0
ffff000000002d70:	540000c1 	b.ne	ffff000000002d88 <timer_add+0x80>
ffff000000002d74:	90000040 	adrp	x0, ffff00000000a000 <pg_tbl_end>
ffff000000002d78:	91044000 	add	x0, x0, #0x110
ffff000000002d7c:	b9802fa1 	ldrsw	x1, [x29,#44]
ffff000000002d80:	f94013a2 	ldr	x2, [x29,#32]
ffff000000002d84:	f8217802 	str	x2, [x0,x1,lsl #3]
ffff000000002d88:	b9402fa0 	ldr	w0, [x29,#44]
ffff000000002d8c:	11000400 	add	w0, w0, #0x1
ffff000000002d90:	b9002fa0 	str	w0, [x29,#44]
ffff000000002d94:	b9402fa0 	ldr	w0, [x29,#44]
ffff000000002d98:	71007c1f 	cmp	w0, #0x1f
ffff000000002d9c:	54fffe0d 	b.le	ffff000000002d5c <timer_add+0x54>
ffff000000002da0:	d503201f 	nop
ffff000000002da4:	a8c37bfd 	ldp	x29, x30, [sp],#48
ffff000000002da8:	d65f03c0 	ret

ffff000000002dac <timer_delete>:
ffff000000002dac:	d10083ff 	sub	sp, sp, #0x20
ffff000000002db0:	f90007e0 	str	x0, [sp,#8]
ffff000000002db4:	b9001fff 	str	wzr, [sp,#28]
ffff000000002db8:	b9001fff 	str	wzr, [sp,#28]
ffff000000002dbc:	1400000f 	b	ffff000000002df8 <timer_delete+0x4c>
ffff000000002dc0:	90000040 	adrp	x0, ffff00000000a000 <pg_tbl_end>
ffff000000002dc4:	91044000 	add	x0, x0, #0x110
ffff000000002dc8:	b9801fe1 	ldrsw	x1, [sp,#28]
ffff000000002dcc:	f8617801 	ldr	x1, [x0,x1,lsl #3]
ffff000000002dd0:	f94007e0 	ldr	x0, [sp,#8]
ffff000000002dd4:	eb00003f 	cmp	x1, x0
ffff000000002dd8:	540000a1 	b.ne	ffff000000002dec <timer_delete+0x40>
ffff000000002ddc:	90000040 	adrp	x0, ffff00000000a000 <pg_tbl_end>
ffff000000002de0:	91044000 	add	x0, x0, #0x110
ffff000000002de4:	b9801fe1 	ldrsw	x1, [sp,#28]
ffff000000002de8:	f821781f 	str	xzr, [x0,x1,lsl #3]
ffff000000002dec:	b9401fe0 	ldr	w0, [sp,#28]
ffff000000002df0:	11000400 	add	w0, w0, #0x1
ffff000000002df4:	b9001fe0 	str	w0, [sp,#28]
ffff000000002df8:	b9401fe0 	ldr	w0, [sp,#28]
ffff000000002dfc:	71007c1f 	cmp	w0, #0x1f
ffff000000002e00:	54fffe0d 	b.le	ffff000000002dc0 <timer_delete+0x14>
ffff000000002e04:	d503201f 	nop
ffff000000002e08:	910083ff 	add	sp, sp, #0x20
ffff000000002e0c:	d65f03c0 	ret

ffff000000002e10 <walk_timer_list>:
ffff000000002e10:	a9be7bfd 	stp	x29, x30, [sp,#-32]!
ffff000000002e14:	910003fd 	mov	x29, sp
ffff000000002e18:	b9001fbf 	str	wzr, [x29,#28]
ffff000000002e1c:	b9001fbf 	str	wzr, [x29,#28]
ffff000000002e20:	1400001f 	b	ffff000000002e9c <walk_timer_list+0x8c>
ffff000000002e24:	90000040 	adrp	x0, ffff00000000a000 <pg_tbl_end>
ffff000000002e28:	91044000 	add	x0, x0, #0x110
ffff000000002e2c:	b9801fa1 	ldrsw	x1, [x29,#28]
ffff000000002e30:	f8617800 	ldr	x0, [x0,x1,lsl #3]
ffff000000002e34:	f100001f 	cmp	x0, #0x0
ffff000000002e38:	540002c0 	b.eq	ffff000000002e90 <walk_timer_list+0x80>
ffff000000002e3c:	90000040 	adrp	x0, ffff00000000a000 <pg_tbl_end>
ffff000000002e40:	91044000 	add	x0, x0, #0x110
ffff000000002e44:	b9801fa1 	ldrsw	x1, [x29,#28]
ffff000000002e48:	f8617800 	ldr	x0, [x0,x1,lsl #3]
ffff000000002e4c:	f9400001 	ldr	x1, [x0]
ffff000000002e50:	90000040 	adrp	x0, ffff00000000a000 <pg_tbl_end>
ffff000000002e54:	91000000 	add	x0, x0, #0x0
ffff000000002e58:	f9400000 	ldr	x0, [x0]
ffff000000002e5c:	eb00003f 	cmp	x1, x0
ffff000000002e60:	54000189 	b.ls	ffff000000002e90 <walk_timer_list+0x80>
ffff000000002e64:	90000040 	adrp	x0, ffff00000000a000 <pg_tbl_end>
ffff000000002e68:	91044000 	add	x0, x0, #0x110
ffff000000002e6c:	b9801fa1 	ldrsw	x1, [x29,#28]
ffff000000002e70:	f8617800 	ldr	x0, [x0,x1,lsl #3]
ffff000000002e74:	f9400400 	ldr	x0, [x0,#8]
ffff000000002e78:	d63f0000 	blr	x0
ffff000000002e7c:	90000040 	adrp	x0, ffff00000000a000 <pg_tbl_end>
ffff000000002e80:	91044000 	add	x0, x0, #0x110
ffff000000002e84:	b9801fa1 	ldrsw	x1, [x29,#28]
ffff000000002e88:	f8617800 	ldr	x0, [x0,x1,lsl #3]
ffff000000002e8c:	97ffffc8 	bl	ffff000000002dac <timer_delete>
ffff000000002e90:	b9401fa0 	ldr	w0, [x29,#28]
ffff000000002e94:	11000400 	add	w0, w0, #0x1
ffff000000002e98:	b9001fa0 	str	w0, [x29,#28]
ffff000000002e9c:	b9401fa0 	ldr	w0, [x29,#28]
ffff000000002ea0:	71007c1f 	cmp	w0, #0x1f
ffff000000002ea4:	54fffc0d 	b.le	ffff000000002e24 <walk_timer_list+0x14>
ffff000000002ea8:	d503201f 	nop
ffff000000002eac:	a8c27bfd 	ldp	x29, x30, [sp],#32
ffff000000002eb0:	d65f03c0 	ret

ffff000000002eb4 <init_mm>:
ffff000000002eb4:	d503201f 	nop
ffff000000002eb8:	d65f03c0 	ret

ffff000000002ebc <get_free_page>:
ffff000000002ebc:	a9be7bfd 	stp	x29, x30, [sp,#-32]!
ffff000000002ec0:	910003fd 	mov	x29, sp
ffff000000002ec4:	5281dfe0 	mov	w0, #0xeff                 	// #3839
ffff000000002ec8:	b9001fa0 	str	w0, [x29,#28]
ffff000000002ecc:	1400001b 	b	ffff000000002f38 <get_free_page+0x7c>
ffff000000002ed0:	90000040 	adrp	x0, ffff00000000a000 <pg_tbl_end>
ffff000000002ed4:	91084000 	add	x0, x0, #0x210
ffff000000002ed8:	b9801fa1 	ldrsw	x1, [x29,#28]
ffff000000002edc:	b8617800 	ldr	w0, [x0,x1,lsl #2]
ffff000000002ee0:	7100001f 	cmp	w0, #0x0
ffff000000002ee4:	54000241 	b.ne	ffff000000002f2c <get_free_page+0x70>
ffff000000002ee8:	90000040 	adrp	x0, ffff00000000a000 <pg_tbl_end>
ffff000000002eec:	91084000 	add	x0, x0, #0x210
ffff000000002ef0:	b9801fa1 	ldrsw	x1, [x29,#28]
ffff000000002ef4:	52800022 	mov	w2, #0x1                   	// #1
ffff000000002ef8:	b8217802 	str	w2, [x0,x1,lsl #2]
ffff000000002efc:	b9401fa0 	ldr	w0, [x29,#28]
ffff000000002f00:	11410000 	add	w0, w0, #0x40, lsl #12
ffff000000002f04:	11040000 	add	w0, w0, #0x100
ffff000000002f08:	53144c00 	lsl	w0, w0, #12
ffff000000002f0c:	93407c00 	sxtw	x0, w0
ffff000000002f10:	f9000ba0 	str	x0, [x29,#16]
ffff000000002f14:	f9400ba0 	ldr	x0, [x29,#16]
ffff000000002f18:	d2820002 	mov	x2, #0x1000                	// #4096
ffff000000002f1c:	52800001 	mov	w1, #0x0                   	// #0
ffff000000002f20:	94000027 	bl	ffff000000002fbc <memset>
ffff000000002f24:	f9400ba0 	ldr	x0, [x29,#16]
ffff000000002f28:	14000008 	b	ffff000000002f48 <get_free_page+0x8c>
ffff000000002f2c:	b9401fa0 	ldr	w0, [x29,#28]
ffff000000002f30:	51000400 	sub	w0, w0, #0x1
ffff000000002f34:	b9001fa0 	str	w0, [x29,#28]
ffff000000002f38:	b9401fa0 	ldr	w0, [x29,#28]
ffff000000002f3c:	7100001f 	cmp	w0, #0x0
ffff000000002f40:	54fffc8a 	b.ge	ffff000000002ed0 <get_free_page+0x14>
ffff000000002f44:	d2800000 	mov	x0, #0x0                   	// #0
ffff000000002f48:	a8c27bfd 	ldp	x29, x30, [sp],#32
ffff000000002f4c:	d65f03c0 	ret

ffff000000002f50 <free_page>:
ffff000000002f50:	a9be7bfd 	stp	x29, x30, [sp,#-32]!
ffff000000002f54:	910003fd 	mov	x29, sp
ffff000000002f58:	f9000fa0 	str	x0, [x29,#24]
ffff000000002f5c:	f9400fa1 	ldr	x1, [x29,#24]
ffff000000002f60:	d29fffe0 	mov	x0, #0xffff                	// #65535
ffff000000002f64:	f2a801e0 	movk	x0, #0x400f, lsl #16
ffff000000002f68:	eb00003f 	cmp	x1, x0
ffff000000002f6c:	540000c9 	b.ls	ffff000000002f84 <free_page+0x34>
ffff000000002f70:	f9400fa1 	ldr	x1, [x29,#24]
ffff000000002f74:	d29fffe0 	mov	x0, #0xffff                	// #65535
ffff000000002f78:	f2a81de0 	movk	x0, #0x40ef, lsl #16
ffff000000002f7c:	eb00003f 	cmp	x1, x0
ffff000000002f80:	54000089 	b.ls	ffff000000002f90 <free_page+0x40>
ffff000000002f84:	90000020 	adrp	x0, ffff000000006000 <__init_stack_top>
ffff000000002f88:	91028000 	add	x0, x0, #0xa0
ffff000000002f8c:	940003cb 	bl	ffff000000003eb8 <tfp_printf>
ffff000000002f90:	f9400fa1 	ldr	x1, [x29,#24]
ffff000000002f94:	929fffe0 	mov	x0, #0xffffffffffff0000    	// #-65536
ffff000000002f98:	f2b7fe00 	movk	x0, #0xbff0, lsl #16
ffff000000002f9c:	8b000020 	add	x0, x1, x0
ffff000000002fa0:	d34cfc01 	lsr	x1, x0, #12
ffff000000002fa4:	90000040 	adrp	x0, ffff00000000a000 <pg_tbl_end>
ffff000000002fa8:	91084000 	add	x0, x0, #0x210
ffff000000002fac:	b821781f 	str	wzr, [x0,x1,lsl #2]
ffff000000002fb0:	d503201f 	nop
ffff000000002fb4:	a8c27bfd 	ldp	x29, x30, [sp],#32
ffff000000002fb8:	d65f03c0 	ret

ffff000000002fbc <memset>:
ffff000000002fbc:	d100c3ff 	sub	sp, sp, #0x30
ffff000000002fc0:	f9000fe0 	str	x0, [sp,#24]
ffff000000002fc4:	b90017e1 	str	w1, [sp,#20]
ffff000000002fc8:	f90007e2 	str	x2, [sp,#8]
ffff000000002fcc:	f9400fe0 	ldr	x0, [sp,#24]
ffff000000002fd0:	f100001f 	cmp	x0, #0x0
ffff000000002fd4:	54000061 	b.ne	ffff000000002fe0 <memset+0x24>
ffff000000002fd8:	d2800000 	mov	x0, #0x0                   	// #0
ffff000000002fdc:	14000010 	b	ffff00000000301c <memset+0x60>
ffff000000002fe0:	f9400fe0 	ldr	x0, [sp,#24]
ffff000000002fe4:	f90017e0 	str	x0, [sp,#40]
ffff000000002fe8:	14000007 	b	ffff000000003004 <memset+0x48>
ffff000000002fec:	f94017e0 	ldr	x0, [sp,#40]
ffff000000002ff0:	91000401 	add	x1, x0, #0x1
ffff000000002ff4:	f90017e1 	str	x1, [sp,#40]
ffff000000002ff8:	b94017e1 	ldr	w1, [sp,#20]
ffff000000002ffc:	53001c21 	uxtb	w1, w1
ffff000000003000:	39000001 	strb	w1, [x0]
ffff000000003004:	f94007e0 	ldr	x0, [sp,#8]
ffff000000003008:	d1000401 	sub	x1, x0, #0x1
ffff00000000300c:	f90007e1 	str	x1, [sp,#8]
ffff000000003010:	f100001f 	cmp	x0, #0x0
ffff000000003014:	54fffec1 	b.ne	ffff000000002fec <memset+0x30>
ffff000000003018:	f9400fe0 	ldr	x0, [sp,#24]
ffff00000000301c:	9100c3ff 	add	sp, sp, #0x30
ffff000000003020:	d65f03c0 	ret

ffff000000003024 <pow>:
ffff000000003024:	d10083ff 	sub	sp, sp, #0x20
ffff000000003028:	f90007e0 	str	x0, [sp,#8]
ffff00000000302c:	f90003e1 	str	x1, [sp]
ffff000000003030:	d2800020 	mov	x0, #0x1                   	// #1
ffff000000003034:	f9000fe0 	str	x0, [sp,#24]
ffff000000003038:	14000005 	b	ffff00000000304c <pow+0x28>
ffff00000000303c:	f9400fe1 	ldr	x1, [sp,#24]
ffff000000003040:	f94007e0 	ldr	x0, [sp,#8]
ffff000000003044:	9b007c20 	mul	x0, x1, x0
ffff000000003048:	f9000fe0 	str	x0, [sp,#24]
ffff00000000304c:	f94003e0 	ldr	x0, [sp]
ffff000000003050:	d1000401 	sub	x1, x0, #0x1
ffff000000003054:	f90003e1 	str	x1, [sp]
ffff000000003058:	f100001f 	cmp	x0, #0x0
ffff00000000305c:	54ffff01 	b.ne	ffff00000000303c <pow+0x18>
ffff000000003060:	f9400fe0 	ldr	x0, [sp,#24]
ffff000000003064:	910083ff 	add	sp, sp, #0x20
ffff000000003068:	d65f03c0 	ret

ffff00000000306c <putc>:
ffff00000000306c:	d10043ff 	sub	sp, sp, #0x10
ffff000000003070:	f90007e0 	str	x0, [sp,#8]
ffff000000003074:	39001fe1 	strb	w1, [sp,#7]
ffff000000003078:	d2a7f800 	mov	x0, #0x3fc00000            	// #1069547520
ffff00000000307c:	f2ffffe0 	movk	x0, #0xffff, lsl #48
ffff000000003080:	39401fe1 	ldrb	w1, [sp,#7]
ffff000000003084:	f9000001 	str	x1, [x0]
ffff000000003088:	d503201f 	nop
ffff00000000308c:	910043ff 	add	sp, sp, #0x10
ffff000000003090:	d65f03c0 	ret

ffff000000003094 <log>:
ffff000000003094:	a9bf7bfd 	stp	x29, x30, [sp,#-16]!
ffff000000003098:	910003fd 	mov	x29, sp
ffff00000000309c:	52800461 	mov	w1, #0x23                  	// #35
ffff0000000030a0:	d2800000 	mov	x0, #0x0                   	// #0
ffff0000000030a4:	97fffff2 	bl	ffff00000000306c <putc>
ffff0000000030a8:	52800461 	mov	w1, #0x23                  	// #35
ffff0000000030ac:	d2800000 	mov	x0, #0x0                   	// #0
ffff0000000030b0:	97ffffef 	bl	ffff00000000306c <putc>
ffff0000000030b4:	52800461 	mov	w1, #0x23                  	// #35
ffff0000000030b8:	d2800000 	mov	x0, #0x0                   	// #0
ffff0000000030bc:	97ffffec 	bl	ffff00000000306c <putc>
ffff0000000030c0:	52800461 	mov	w1, #0x23                  	// #35
ffff0000000030c4:	d2800000 	mov	x0, #0x0                   	// #0
ffff0000000030c8:	97ffffe9 	bl	ffff00000000306c <putc>
ffff0000000030cc:	52800461 	mov	w1, #0x23                  	// #35
ffff0000000030d0:	d2800000 	mov	x0, #0x0                   	// #0
ffff0000000030d4:	97ffffe6 	bl	ffff00000000306c <putc>
ffff0000000030d8:	52800141 	mov	w1, #0xa                   	// #10
ffff0000000030dc:	d2800000 	mov	x0, #0x0                   	// #0
ffff0000000030e0:	97ffffe3 	bl	ffff00000000306c <putc>
ffff0000000030e4:	d503201f 	nop
ffff0000000030e8:	a8c17bfd 	ldp	x29, x30, [sp],#16
ffff0000000030ec:	d65f03c0 	ret

ffff0000000030f0 <init_bucket_desc>:
ffff0000000030f0:	a9bd7bfd 	stp	x29, x30, [sp,#-48]!
ffff0000000030f4:	910003fd 	mov	x29, sp
ffff0000000030f8:	97ffff71 	bl	ffff000000002ebc <get_free_page>
ffff0000000030fc:	f90017a0 	str	x0, [x29,#40]
ffff000000003100:	f94017a0 	ldr	x0, [x29,#40]
ffff000000003104:	f9000fa0 	str	x0, [x29,#24]
ffff000000003108:	f94017a0 	ldr	x0, [x29,#40]
ffff00000000310c:	f100001f 	cmp	x0, #0x0
ffff000000003110:	54000081 	b.ne	ffff000000003120 <init_bucket_desc+0x30>
ffff000000003114:	f0000000 	adrp	x0, ffff000000006000 <__init_stack_top>
ffff000000003118:	91032000 	add	x0, x0, #0xc8
ffff00000000311c:	94000367 	bl	ffff000000003eb8 <tfp_printf>
ffff000000003120:	52801000 	mov	w0, #0x80                  	// #128
ffff000000003124:	b90027a0 	str	w0, [x29,#36]
ffff000000003128:	1400000b 	b	ffff000000003154 <init_bucket_desc+0x64>
ffff00000000312c:	f94017a0 	ldr	x0, [x29,#40]
ffff000000003130:	91008001 	add	x1, x0, #0x20
ffff000000003134:	f94017a0 	ldr	x0, [x29,#40]
ffff000000003138:	f9000401 	str	x1, [x0,#8]
ffff00000000313c:	f94017a0 	ldr	x0, [x29,#40]
ffff000000003140:	91008000 	add	x0, x0, #0x20
ffff000000003144:	f90017a0 	str	x0, [x29,#40]
ffff000000003148:	b94027a0 	ldr	w0, [x29,#36]
ffff00000000314c:	51000400 	sub	w0, w0, #0x1
ffff000000003150:	b90027a0 	str	w0, [x29,#36]
ffff000000003154:	b94027a0 	ldr	w0, [x29,#36]
ffff000000003158:	7100041f 	cmp	w0, #0x1
ffff00000000315c:	54fffe8c 	b.gt	ffff00000000312c <init_bucket_desc+0x3c>
ffff000000003160:	d0000040 	adrp	x0, ffff00000000d000 <mem_map+0x2df0>
ffff000000003164:	91384000 	add	x0, x0, #0xe10
ffff000000003168:	f9400001 	ldr	x1, [x0]
ffff00000000316c:	f94017a0 	ldr	x0, [x29,#40]
ffff000000003170:	f9000401 	str	x1, [x0,#8]
ffff000000003174:	d0000040 	adrp	x0, ffff00000000d000 <mem_map+0x2df0>
ffff000000003178:	91384000 	add	x0, x0, #0xe10
ffff00000000317c:	f9400fa1 	ldr	x1, [x29,#24]
ffff000000003180:	f9000001 	str	x1, [x0]
ffff000000003184:	d503201f 	nop
ffff000000003188:	a8c37bfd 	ldp	x29, x30, [sp],#48
ffff00000000318c:	d65f03c0 	ret

ffff000000003190 <kmalloc>:
ffff000000003190:	a9bb7bfd 	stp	x29, x30, [sp,#-80]!
ffff000000003194:	910003fd 	mov	x29, sp
ffff000000003198:	b9001fa0 	str	w0, [x29,#28]
ffff00000000319c:	f0000000 	adrp	x0, ffff000000006000 <__init_stack_top>
ffff0000000031a0:	9106e000 	add	x0, x0, #0x1b8
ffff0000000031a4:	f90027a0 	str	x0, [x29,#72]
ffff0000000031a8:	1400000a 	b	ffff0000000031d0 <kmalloc+0x40>
ffff0000000031ac:	f94027a0 	ldr	x0, [x29,#72]
ffff0000000031b0:	b9400000 	ldr	w0, [x0]
ffff0000000031b4:	2a0003e1 	mov	w1, w0
ffff0000000031b8:	b9401fa0 	ldr	w0, [x29,#28]
ffff0000000031bc:	6b00003f 	cmp	w1, w0
ffff0000000031c0:	54000122 	b.cs	ffff0000000031e4 <kmalloc+0x54>
ffff0000000031c4:	f94027a0 	ldr	x0, [x29,#72]
ffff0000000031c8:	91004000 	add	x0, x0, #0x10
ffff0000000031cc:	f90027a0 	str	x0, [x29,#72]
ffff0000000031d0:	f94027a0 	ldr	x0, [x29,#72]
ffff0000000031d4:	b9400000 	ldr	w0, [x0]
ffff0000000031d8:	7100001f 	cmp	w0, #0x0
ffff0000000031dc:	54fffe81 	b.ne	ffff0000000031ac <kmalloc+0x1c>
ffff0000000031e0:	14000002 	b	ffff0000000031e8 <kmalloc+0x58>
ffff0000000031e4:	d503201f 	nop
ffff0000000031e8:	f94027a0 	ldr	x0, [x29,#72]
ffff0000000031ec:	b9400000 	ldr	w0, [x0]
ffff0000000031f0:	7100001f 	cmp	w0, #0x0
ffff0000000031f4:	54000081 	b.ne	ffff000000003204 <kmalloc+0x74>
ffff0000000031f8:	f0000000 	adrp	x0, ffff000000006000 <__init_stack_top>
ffff0000000031fc:	9103c000 	add	x0, x0, #0xf0
ffff000000003200:	9400032e 	bl	ffff000000003eb8 <tfp_printf>
ffff000000003204:	f94027a0 	ldr	x0, [x29,#72]
ffff000000003208:	f9400400 	ldr	x0, [x0,#8]
ffff00000000320c:	f90023a0 	str	x0, [x29,#64]
ffff000000003210:	14000008 	b	ffff000000003230 <kmalloc+0xa0>
ffff000000003214:	f94023a0 	ldr	x0, [x29,#64]
ffff000000003218:	f9400800 	ldr	x0, [x0,#16]
ffff00000000321c:	f100001f 	cmp	x0, #0x0
ffff000000003220:	54000101 	b.ne	ffff000000003240 <kmalloc+0xb0>
ffff000000003224:	f94023a0 	ldr	x0, [x29,#64]
ffff000000003228:	f9400400 	ldr	x0, [x0,#8]
ffff00000000322c:	f90023a0 	str	x0, [x29,#64]
ffff000000003230:	f94023a0 	ldr	x0, [x29,#64]
ffff000000003234:	f100001f 	cmp	x0, #0x0
ffff000000003238:	54fffee1 	b.ne	ffff000000003214 <kmalloc+0x84>
ffff00000000323c:	14000002 	b	ffff000000003244 <kmalloc+0xb4>
ffff000000003240:	d503201f 	nop
ffff000000003244:	f94023a0 	ldr	x0, [x29,#64]
ffff000000003248:	f100001f 	cmp	x0, #0x0
ffff00000000324c:	54000901 	b.ne	ffff00000000336c <kmalloc+0x1dc>
ffff000000003250:	d0000040 	adrp	x0, ffff00000000d000 <mem_map+0x2df0>
ffff000000003254:	91384000 	add	x0, x0, #0xe10
ffff000000003258:	f9400000 	ldr	x0, [x0]
ffff00000000325c:	f100001f 	cmp	x0, #0x0
ffff000000003260:	54000041 	b.ne	ffff000000003268 <kmalloc+0xd8>
ffff000000003264:	97ffffa3 	bl	ffff0000000030f0 <init_bucket_desc>
ffff000000003268:	d0000040 	adrp	x0, ffff00000000d000 <mem_map+0x2df0>
ffff00000000326c:	91384000 	add	x0, x0, #0xe10
ffff000000003270:	f9400000 	ldr	x0, [x0]
ffff000000003274:	f90023a0 	str	x0, [x29,#64]
ffff000000003278:	f94023a0 	ldr	x0, [x29,#64]
ffff00000000327c:	f9400401 	ldr	x1, [x0,#8]
ffff000000003280:	d0000040 	adrp	x0, ffff00000000d000 <mem_map+0x2df0>
ffff000000003284:	91384000 	add	x0, x0, #0xe10
ffff000000003288:	f9000001 	str	x1, [x0]
ffff00000000328c:	f94023a0 	ldr	x0, [x29,#64]
ffff000000003290:	7900301f 	strh	wzr, [x0,#24]
ffff000000003294:	f94027a0 	ldr	x0, [x29,#72]
ffff000000003298:	b9400000 	ldr	w0, [x0]
ffff00000000329c:	53003c01 	uxth	w1, w0
ffff0000000032a0:	f94023a0 	ldr	x0, [x29,#64]
ffff0000000032a4:	79003401 	strh	w1, [x0,#26]
ffff0000000032a8:	97ffff05 	bl	ffff000000002ebc <get_free_page>
ffff0000000032ac:	f9001fa0 	str	x0, [x29,#56]
ffff0000000032b0:	f94023a0 	ldr	x0, [x29,#64]
ffff0000000032b4:	f9401fa1 	ldr	x1, [x29,#56]
ffff0000000032b8:	f9000801 	str	x1, [x0,#16]
ffff0000000032bc:	f94023a0 	ldr	x0, [x29,#64]
ffff0000000032c0:	f9400801 	ldr	x1, [x0,#16]
ffff0000000032c4:	f94023a0 	ldr	x0, [x29,#64]
ffff0000000032c8:	f9000001 	str	x1, [x0]
ffff0000000032cc:	f9401fa0 	ldr	x0, [x29,#56]
ffff0000000032d0:	f100001f 	cmp	x0, #0x0
ffff0000000032d4:	54000081 	b.ne	ffff0000000032e4 <kmalloc+0x154>
ffff0000000032d8:	f0000000 	adrp	x0, ffff000000006000 <__init_stack_top>
ffff0000000032dc:	91042000 	add	x0, x0, #0x108
ffff0000000032e0:	940002f6 	bl	ffff000000003eb8 <tfp_printf>
ffff0000000032e4:	f94027a0 	ldr	x0, [x29,#72]
ffff0000000032e8:	b9400000 	ldr	w0, [x0]
ffff0000000032ec:	52820001 	mov	w1, #0x1000                	// #4096
ffff0000000032f0:	1ac00c20 	sdiv	w0, w1, w0
ffff0000000032f4:	b90037a0 	str	w0, [x29,#52]
ffff0000000032f8:	14000011 	b	ffff00000000333c <kmalloc+0x1ac>
ffff0000000032fc:	f94027a0 	ldr	x0, [x29,#72]
ffff000000003300:	b9400000 	ldr	w0, [x0]
ffff000000003304:	93407c00 	sxtw	x0, w0
ffff000000003308:	f9401fa1 	ldr	x1, [x29,#56]
ffff00000000330c:	8b000021 	add	x1, x1, x0
ffff000000003310:	f9401fa0 	ldr	x0, [x29,#56]
ffff000000003314:	f9000001 	str	x1, [x0]
ffff000000003318:	f94027a0 	ldr	x0, [x29,#72]
ffff00000000331c:	b9400000 	ldr	w0, [x0]
ffff000000003320:	93407c00 	sxtw	x0, w0
ffff000000003324:	f9401fa1 	ldr	x1, [x29,#56]
ffff000000003328:	8b000020 	add	x0, x1, x0
ffff00000000332c:	f9001fa0 	str	x0, [x29,#56]
ffff000000003330:	b94037a0 	ldr	w0, [x29,#52]
ffff000000003334:	51000400 	sub	w0, w0, #0x1
ffff000000003338:	b90037a0 	str	w0, [x29,#52]
ffff00000000333c:	b94037a0 	ldr	w0, [x29,#52]
ffff000000003340:	7100041f 	cmp	w0, #0x1
ffff000000003344:	54fffdcc 	b.gt	ffff0000000032fc <kmalloc+0x16c>
ffff000000003348:	f9401fa0 	ldr	x0, [x29,#56]
ffff00000000334c:	f900001f 	str	xzr, [x0]
ffff000000003350:	f94027a0 	ldr	x0, [x29,#72]
ffff000000003354:	f9400401 	ldr	x1, [x0,#8]
ffff000000003358:	f94023a0 	ldr	x0, [x29,#64]
ffff00000000335c:	f9000401 	str	x1, [x0,#8]
ffff000000003360:	f94027a0 	ldr	x0, [x29,#72]
ffff000000003364:	f94023a1 	ldr	x1, [x29,#64]
ffff000000003368:	f9000401 	str	x1, [x0,#8]
ffff00000000336c:	f94023a0 	ldr	x0, [x29,#64]
ffff000000003370:	f9400800 	ldr	x0, [x0,#16]
ffff000000003374:	f90017a0 	str	x0, [x29,#40]
ffff000000003378:	f94017a0 	ldr	x0, [x29,#40]
ffff00000000337c:	f9400001 	ldr	x1, [x0]
ffff000000003380:	f94023a0 	ldr	x0, [x29,#64]
ffff000000003384:	f9000801 	str	x1, [x0,#16]
ffff000000003388:	f94023a0 	ldr	x0, [x29,#64]
ffff00000000338c:	79403000 	ldrh	w0, [x0,#24]
ffff000000003390:	11000400 	add	w0, w0, #0x1
ffff000000003394:	53003c01 	uxth	w1, w0
ffff000000003398:	f94023a0 	ldr	x0, [x29,#64]
ffff00000000339c:	79003001 	strh	w1, [x0,#24]
ffff0000000033a0:	f94017a0 	ldr	x0, [x29,#40]
ffff0000000033a4:	a8c57bfd 	ldp	x29, x30, [sp],#80
ffff0000000033a8:	d65f03c0 	ret

ffff0000000033ac <free_s>:
ffff0000000033ac:	a9bc7bfd 	stp	x29, x30, [sp,#-64]!
ffff0000000033b0:	910003fd 	mov	x29, sp
ffff0000000033b4:	f9000fa0 	str	x0, [x29,#24]
ffff0000000033b8:	b90017a1 	str	w1, [x29,#20]
ffff0000000033bc:	f9400fa0 	ldr	x0, [x29,#24]
ffff0000000033c0:	92744c00 	and	x0, x0, #0xfffff000
ffff0000000033c4:	f90013a0 	str	x0, [x29,#32]
ffff0000000033c8:	f0000000 	adrp	x0, ffff000000006000 <__init_stack_top>
ffff0000000033cc:	9106e000 	add	x0, x0, #0x1b8
ffff0000000033d0:	f9001fa0 	str	x0, [x29,#56]
ffff0000000033d4:	1400001d 	b	ffff000000003448 <free_s+0x9c>
ffff0000000033d8:	f90017bf 	str	xzr, [x29,#40]
ffff0000000033dc:	f9401fa0 	ldr	x0, [x29,#56]
ffff0000000033e0:	b9400001 	ldr	w1, [x0]
ffff0000000033e4:	b94017a0 	ldr	w0, [x29,#20]
ffff0000000033e8:	6b00003f 	cmp	w1, w0
ffff0000000033ec:	5400026b 	b.lt	ffff000000003438 <free_s+0x8c>
ffff0000000033f0:	f9401fa0 	ldr	x0, [x29,#56]
ffff0000000033f4:	f9400400 	ldr	x0, [x0,#8]
ffff0000000033f8:	f9001ba0 	str	x0, [x29,#48]
ffff0000000033fc:	1400000b 	b	ffff000000003428 <free_s+0x7c>
ffff000000003400:	f9401ba0 	ldr	x0, [x29,#48]
ffff000000003404:	f9400001 	ldr	x1, [x0]
ffff000000003408:	f94013a0 	ldr	x0, [x29,#32]
ffff00000000340c:	eb00003f 	cmp	x1, x0
ffff000000003410:	540002c0 	b.eq	ffff000000003468 <free_s+0xbc>
ffff000000003414:	f9401ba0 	ldr	x0, [x29,#48]
ffff000000003418:	f90017a0 	str	x0, [x29,#40]
ffff00000000341c:	f9401ba0 	ldr	x0, [x29,#48]
ffff000000003420:	f9400400 	ldr	x0, [x0,#8]
ffff000000003424:	f9001ba0 	str	x0, [x29,#48]
ffff000000003428:	f9401ba0 	ldr	x0, [x29,#48]
ffff00000000342c:	f100001f 	cmp	x0, #0x0
ffff000000003430:	54fffe81 	b.ne	ffff000000003400 <free_s+0x54>
ffff000000003434:	14000002 	b	ffff00000000343c <free_s+0x90>
ffff000000003438:	d503201f 	nop
ffff00000000343c:	f9401fa0 	ldr	x0, [x29,#56]
ffff000000003440:	91004000 	add	x0, x0, #0x10
ffff000000003444:	f9001fa0 	str	x0, [x29,#56]
ffff000000003448:	f9401fa0 	ldr	x0, [x29,#56]
ffff00000000344c:	b9400000 	ldr	w0, [x0]
ffff000000003450:	7100001f 	cmp	w0, #0x0
ffff000000003454:	54fffc21 	b.ne	ffff0000000033d8 <free_s+0x2c>
ffff000000003458:	f0000000 	adrp	x0, ffff000000006000 <__init_stack_top>
ffff00000000345c:	9104c000 	add	x0, x0, #0x130
ffff000000003460:	94000296 	bl	ffff000000003eb8 <tfp_printf>
ffff000000003464:	14000002 	b	ffff00000000346c <free_s+0xc0>
ffff000000003468:	d503201f 	nop
ffff00000000346c:	f9401ba0 	ldr	x0, [x29,#48]
ffff000000003470:	f9400801 	ldr	x1, [x0,#16]
ffff000000003474:	f9400fa0 	ldr	x0, [x29,#24]
ffff000000003478:	f9000001 	str	x1, [x0]
ffff00000000347c:	f9401ba0 	ldr	x0, [x29,#48]
ffff000000003480:	f9400fa1 	ldr	x1, [x29,#24]
ffff000000003484:	f9000801 	str	x1, [x0,#16]
ffff000000003488:	f9401ba0 	ldr	x0, [x29,#48]
ffff00000000348c:	79403000 	ldrh	w0, [x0,#24]
ffff000000003490:	51000400 	sub	w0, w0, #0x1
ffff000000003494:	53003c01 	uxth	w1, w0
ffff000000003498:	f9401ba0 	ldr	x0, [x29,#48]
ffff00000000349c:	79003001 	strh	w1, [x0,#24]
ffff0000000034a0:	f9401ba0 	ldr	x0, [x29,#48]
ffff0000000034a4:	79403000 	ldrh	w0, [x0,#24]
ffff0000000034a8:	7100001f 	cmp	w0, #0x0
ffff0000000034ac:	54000861 	b.ne	ffff0000000035b8 <free_s+0x20c>
ffff0000000034b0:	f94017a0 	ldr	x0, [x29,#40]
ffff0000000034b4:	f100001f 	cmp	x0, #0x0
ffff0000000034b8:	540000c0 	b.eq	ffff0000000034d0 <free_s+0x124>
ffff0000000034bc:	f94017a0 	ldr	x0, [x29,#40]
ffff0000000034c0:	f9400401 	ldr	x1, [x0,#8]
ffff0000000034c4:	f9401ba0 	ldr	x0, [x29,#48]
ffff0000000034c8:	eb00003f 	cmp	x1, x0
ffff0000000034cc:	54000121 	b.ne	ffff0000000034f0 <free_s+0x144>
ffff0000000034d0:	f94017a0 	ldr	x0, [x29,#40]
ffff0000000034d4:	f100001f 	cmp	x0, #0x0
ffff0000000034d8:	540002e1 	b.ne	ffff000000003534 <free_s+0x188>
ffff0000000034dc:	f9401fa0 	ldr	x0, [x29,#56]
ffff0000000034e0:	f9400401 	ldr	x1, [x0,#8]
ffff0000000034e4:	f9401ba0 	ldr	x0, [x29,#48]
ffff0000000034e8:	eb00003f 	cmp	x1, x0
ffff0000000034ec:	54000240 	b.eq	ffff000000003534 <free_s+0x188>
ffff0000000034f0:	f9401fa0 	ldr	x0, [x29,#56]
ffff0000000034f4:	f9400400 	ldr	x0, [x0,#8]
ffff0000000034f8:	f90017a0 	str	x0, [x29,#40]
ffff0000000034fc:	14000009 	b	ffff000000003520 <free_s+0x174>
ffff000000003500:	f94017a0 	ldr	x0, [x29,#40]
ffff000000003504:	f9400401 	ldr	x1, [x0,#8]
ffff000000003508:	f9401ba0 	ldr	x0, [x29,#48]
ffff00000000350c:	eb00003f 	cmp	x1, x0
ffff000000003510:	54000100 	b.eq	ffff000000003530 <free_s+0x184>
ffff000000003514:	f94017a0 	ldr	x0, [x29,#40]
ffff000000003518:	f9400400 	ldr	x0, [x0,#8]
ffff00000000351c:	f90017a0 	str	x0, [x29,#40]
ffff000000003520:	f94017a0 	ldr	x0, [x29,#40]
ffff000000003524:	f100001f 	cmp	x0, #0x0
ffff000000003528:	54fffec1 	b.ne	ffff000000003500 <free_s+0x154>
ffff00000000352c:	14000002 	b	ffff000000003534 <free_s+0x188>
ffff000000003530:	d503201f 	nop
ffff000000003534:	f94017a0 	ldr	x0, [x29,#40]
ffff000000003538:	f100001f 	cmp	x0, #0x0
ffff00000000353c:	540000c0 	b.eq	ffff000000003554 <free_s+0x1a8>
ffff000000003540:	f9401ba0 	ldr	x0, [x29,#48]
ffff000000003544:	f9400401 	ldr	x1, [x0,#8]
ffff000000003548:	f94017a0 	ldr	x0, [x29,#40]
ffff00000000354c:	f9000401 	str	x1, [x0,#8]
ffff000000003550:	1400000d 	b	ffff000000003584 <free_s+0x1d8>
ffff000000003554:	f9401fa0 	ldr	x0, [x29,#56]
ffff000000003558:	f9400401 	ldr	x1, [x0,#8]
ffff00000000355c:	f9401ba0 	ldr	x0, [x29,#48]
ffff000000003560:	eb00003f 	cmp	x1, x0
ffff000000003564:	54000080 	b.eq	ffff000000003574 <free_s+0x1c8>
ffff000000003568:	f0000000 	adrp	x0, ffff000000006000 <__init_stack_top>
ffff00000000356c:	91056000 	add	x0, x0, #0x158
ffff000000003570:	94000252 	bl	ffff000000003eb8 <tfp_printf>
ffff000000003574:	f9401ba0 	ldr	x0, [x29,#48]
ffff000000003578:	f9400401 	ldr	x1, [x0,#8]
ffff00000000357c:	f9401fa0 	ldr	x0, [x29,#56]
ffff000000003580:	f9000401 	str	x1, [x0,#8]
ffff000000003584:	f9401ba0 	ldr	x0, [x29,#48]
ffff000000003588:	f9400000 	ldr	x0, [x0]
ffff00000000358c:	97fffe71 	bl	ffff000000002f50 <free_page>
ffff000000003590:	d0000040 	adrp	x0, ffff00000000d000 <mem_map+0x2df0>
ffff000000003594:	91384000 	add	x0, x0, #0xe10
ffff000000003598:	f9400001 	ldr	x1, [x0]
ffff00000000359c:	f9401ba0 	ldr	x0, [x29,#48]
ffff0000000035a0:	f9000401 	str	x1, [x0,#8]
ffff0000000035a4:	d0000040 	adrp	x0, ffff00000000d000 <mem_map+0x2df0>
ffff0000000035a8:	91384000 	add	x0, x0, #0xe10
ffff0000000035ac:	f9401ba1 	ldr	x1, [x29,#48]
ffff0000000035b0:	f9000001 	str	x1, [x0]
ffff0000000035b4:	d503201f 	nop
ffff0000000035b8:	d503201f 	nop
ffff0000000035bc:	a8c47bfd 	ldp	x29, x30, [sp],#64
ffff0000000035c0:	d65f03c0 	ret

ffff0000000035c4 <malloc_test>:
ffff0000000035c4:	a9be7bfd 	stp	x29, x30, [sp,#-32]!
ffff0000000035c8:	910003fd 	mov	x29, sp
ffff0000000035cc:	f0000000 	adrp	x0, ffff000000006000 <__init_stack_top>
ffff0000000035d0:	9105e000 	add	x0, x0, #0x178
ffff0000000035d4:	94000239 	bl	ffff000000003eb8 <tfp_printf>
ffff0000000035d8:	52800080 	mov	w0, #0x4                   	// #4
ffff0000000035dc:	97fffeed 	bl	ffff000000003190 <kmalloc>
ffff0000000035e0:	f9000fa0 	str	x0, [x29,#24]
ffff0000000035e4:	52800080 	mov	w0, #0x4                   	// #4
ffff0000000035e8:	97fffeea 	bl	ffff000000003190 <kmalloc>
ffff0000000035ec:	f9000ba0 	str	x0, [x29,#16]
ffff0000000035f0:	f0000000 	adrp	x0, ffff000000006000 <__init_stack_top>
ffff0000000035f4:	91062000 	add	x0, x0, #0x188
ffff0000000035f8:	f9400fa1 	ldr	x1, [x29,#24]
ffff0000000035fc:	9400022f 	bl	ffff000000003eb8 <tfp_printf>
ffff000000003600:	f0000000 	adrp	x0, ffff000000006000 <__init_stack_top>
ffff000000003604:	91062000 	add	x0, x0, #0x188
ffff000000003608:	f9400ba1 	ldr	x1, [x29,#16]
ffff00000000360c:	9400022b 	bl	ffff000000003eb8 <tfp_printf>
ffff000000003610:	52800001 	mov	w1, #0x0                   	// #0
ffff000000003614:	f9400fa0 	ldr	x0, [x29,#24]
ffff000000003618:	97ffff65 	bl	ffff0000000033ac <free_s>
ffff00000000361c:	52800001 	mov	w1, #0x0                   	// #0
ffff000000003620:	f9400ba0 	ldr	x0, [x29,#16]
ffff000000003624:	97ffff62 	bl	ffff0000000033ac <free_s>
ffff000000003628:	52800080 	mov	w0, #0x4                   	// #4
ffff00000000362c:	97fffed9 	bl	ffff000000003190 <kmalloc>
ffff000000003630:	f9000fa0 	str	x0, [x29,#24]
ffff000000003634:	f0000000 	adrp	x0, ffff000000006000 <__init_stack_top>
ffff000000003638:	91062000 	add	x0, x0, #0x188
ffff00000000363c:	f9400fa1 	ldr	x1, [x29,#24]
ffff000000003640:	9400021e 	bl	ffff000000003eb8 <tfp_printf>
ffff000000003644:	52800001 	mov	w1, #0x0                   	// #0
ffff000000003648:	f9400fa0 	ldr	x0, [x29,#24]
ffff00000000364c:	97ffff58 	bl	ffff0000000033ac <free_s>
ffff000000003650:	52820000 	mov	w0, #0x1000                	// #4096
ffff000000003654:	97fffecf 	bl	ffff000000003190 <kmalloc>
ffff000000003658:	f9000fa0 	str	x0, [x29,#24]
ffff00000000365c:	f0000000 	adrp	x0, ffff000000006000 <__init_stack_top>
ffff000000003660:	91062000 	add	x0, x0, #0x188
ffff000000003664:	f9400fa1 	ldr	x1, [x29,#24]
ffff000000003668:	94000214 	bl	ffff000000003eb8 <tfp_printf>
ffff00000000366c:	52800001 	mov	w1, #0x0                   	// #0
ffff000000003670:	f9400fa0 	ldr	x0, [x29,#24]
ffff000000003674:	97ffff4e 	bl	ffff0000000033ac <free_s>
ffff000000003678:	52820000 	mov	w0, #0x1000                	// #4096
ffff00000000367c:	97fffec5 	bl	ffff000000003190 <kmalloc>
ffff000000003680:	f9000fa0 	str	x0, [x29,#24]
ffff000000003684:	f0000000 	adrp	x0, ffff000000006000 <__init_stack_top>
ffff000000003688:	91062000 	add	x0, x0, #0x188
ffff00000000368c:	f9400fa1 	ldr	x1, [x29,#24]
ffff000000003690:	9400020a 	bl	ffff000000003eb8 <tfp_printf>
ffff000000003694:	52800001 	mov	w1, #0x0                   	// #0
ffff000000003698:	f9400fa0 	ldr	x0, [x29,#24]
ffff00000000369c:	97ffff44 	bl	ffff0000000033ac <free_s>
ffff0000000036a0:	d503201f 	nop
ffff0000000036a4:	a8c27bfd 	ldp	x29, x30, [sp],#32
ffff0000000036a8:	d65f03c0 	ret

ffff0000000036ac <ui2a>:
ffff0000000036ac:	d100c3ff 	sub	sp, sp, #0x30
ffff0000000036b0:	b9001fe0 	str	w0, [sp,#28]
ffff0000000036b4:	b9001be1 	str	w1, [sp,#24]
ffff0000000036b8:	b90017e2 	str	w2, [sp,#20]
ffff0000000036bc:	f90007e3 	str	x3, [sp,#8]
ffff0000000036c0:	b9002fff 	str	wzr, [sp,#44]
ffff0000000036c4:	52800020 	mov	w0, #0x1                   	// #1
ffff0000000036c8:	b9002be0 	str	w0, [sp,#40]
ffff0000000036cc:	14000005 	b	ffff0000000036e0 <ui2a+0x34>
ffff0000000036d0:	b9402be1 	ldr	w1, [sp,#40]
ffff0000000036d4:	b9401be0 	ldr	w0, [sp,#24]
ffff0000000036d8:	1b007c20 	mul	w0, w1, w0
ffff0000000036dc:	b9002be0 	str	w0, [sp,#40]
ffff0000000036e0:	b9401fe1 	ldr	w1, [sp,#28]
ffff0000000036e4:	b9402be0 	ldr	w0, [sp,#40]
ffff0000000036e8:	1ac00821 	udiv	w1, w1, w0
ffff0000000036ec:	b9401be0 	ldr	w0, [sp,#24]
ffff0000000036f0:	6b00003f 	cmp	w1, w0
ffff0000000036f4:	54fffee2 	b.cs	ffff0000000036d0 <ui2a+0x24>
ffff0000000036f8:	1400002f 	b	ffff0000000037b4 <ui2a+0x108>
ffff0000000036fc:	b9401fe1 	ldr	w1, [sp,#28]
ffff000000003700:	b9402be0 	ldr	w0, [sp,#40]
ffff000000003704:	1ac00820 	udiv	w0, w1, w0
ffff000000003708:	b90027e0 	str	w0, [sp,#36]
ffff00000000370c:	b9401fe0 	ldr	w0, [sp,#28]
ffff000000003710:	b9402be1 	ldr	w1, [sp,#40]
ffff000000003714:	1ac10802 	udiv	w2, w0, w1
ffff000000003718:	b9402be1 	ldr	w1, [sp,#40]
ffff00000000371c:	1b017c41 	mul	w1, w2, w1
ffff000000003720:	4b010000 	sub	w0, w0, w1
ffff000000003724:	b9001fe0 	str	w0, [sp,#28]
ffff000000003728:	b9402be1 	ldr	w1, [sp,#40]
ffff00000000372c:	b9401be0 	ldr	w0, [sp,#24]
ffff000000003730:	1ac00820 	udiv	w0, w1, w0
ffff000000003734:	b9002be0 	str	w0, [sp,#40]
ffff000000003738:	b9402fe0 	ldr	w0, [sp,#44]
ffff00000000373c:	7100001f 	cmp	w0, #0x0
ffff000000003740:	540000e1 	b.ne	ffff00000000375c <ui2a+0xb0>
ffff000000003744:	b94027e0 	ldr	w0, [sp,#36]
ffff000000003748:	7100001f 	cmp	w0, #0x0
ffff00000000374c:	5400008c 	b.gt	ffff00000000375c <ui2a+0xb0>
ffff000000003750:	b9402be0 	ldr	w0, [sp,#40]
ffff000000003754:	7100001f 	cmp	w0, #0x0
ffff000000003758:	540002e1 	b.ne	ffff0000000037b4 <ui2a+0x108>
ffff00000000375c:	f94007e1 	ldr	x1, [sp,#8]
ffff000000003760:	91000420 	add	x0, x1, #0x1
ffff000000003764:	f90007e0 	str	x0, [sp,#8]
ffff000000003768:	b94027e0 	ldr	w0, [sp,#36]
ffff00000000376c:	7100241f 	cmp	w0, #0x9
ffff000000003770:	5400010d 	b.le	ffff000000003790 <ui2a+0xe4>
ffff000000003774:	b94017e0 	ldr	w0, [sp,#20]
ffff000000003778:	7100001f 	cmp	w0, #0x0
ffff00000000377c:	54000060 	b.eq	ffff000000003788 <ui2a+0xdc>
ffff000000003780:	528006e0 	mov	w0, #0x37                  	// #55
ffff000000003784:	14000004 	b	ffff000000003794 <ui2a+0xe8>
ffff000000003788:	52800ae0 	mov	w0, #0x57                  	// #87
ffff00000000378c:	14000002 	b	ffff000000003794 <ui2a+0xe8>
ffff000000003790:	52800600 	mov	w0, #0x30                  	// #48
ffff000000003794:	b94027e2 	ldr	w2, [sp,#36]
ffff000000003798:	53001c42 	uxtb	w2, w2
ffff00000000379c:	0b020000 	add	w0, w0, w2
ffff0000000037a0:	53001c00 	uxtb	w0, w0
ffff0000000037a4:	39000020 	strb	w0, [x1]
ffff0000000037a8:	b9402fe0 	ldr	w0, [sp,#44]
ffff0000000037ac:	11000400 	add	w0, w0, #0x1
ffff0000000037b0:	b9002fe0 	str	w0, [sp,#44]
ffff0000000037b4:	b9402be0 	ldr	w0, [sp,#40]
ffff0000000037b8:	7100001f 	cmp	w0, #0x0
ffff0000000037bc:	54fffa01 	b.ne	ffff0000000036fc <ui2a+0x50>
ffff0000000037c0:	f94007e0 	ldr	x0, [sp,#8]
ffff0000000037c4:	3900001f 	strb	wzr, [x0]
ffff0000000037c8:	d503201f 	nop
ffff0000000037cc:	9100c3ff 	add	sp, sp, #0x30
ffff0000000037d0:	d65f03c0 	ret

ffff0000000037d4 <i2a>:
ffff0000000037d4:	a9be7bfd 	stp	x29, x30, [sp,#-32]!
ffff0000000037d8:	910003fd 	mov	x29, sp
ffff0000000037dc:	b9001fa0 	str	w0, [x29,#28]
ffff0000000037e0:	f9000ba1 	str	x1, [x29,#16]
ffff0000000037e4:	b9401fa0 	ldr	w0, [x29,#28]
ffff0000000037e8:	7100001f 	cmp	w0, #0x0
ffff0000000037ec:	5400012a 	b.ge	ffff000000003810 <i2a+0x3c>
ffff0000000037f0:	b9401fa0 	ldr	w0, [x29,#28]
ffff0000000037f4:	4b0003e0 	neg	w0, w0
ffff0000000037f8:	b9001fa0 	str	w0, [x29,#28]
ffff0000000037fc:	f9400ba0 	ldr	x0, [x29,#16]
ffff000000003800:	91000401 	add	x1, x0, #0x1
ffff000000003804:	f9000ba1 	str	x1, [x29,#16]
ffff000000003808:	528005a1 	mov	w1, #0x2d                  	// #45
ffff00000000380c:	39000001 	strb	w1, [x0]
ffff000000003810:	b9401fa0 	ldr	w0, [x29,#28]
ffff000000003814:	f9400ba3 	ldr	x3, [x29,#16]
ffff000000003818:	52800002 	mov	w2, #0x0                   	// #0
ffff00000000381c:	52800141 	mov	w1, #0xa                   	// #10
ffff000000003820:	97ffffa3 	bl	ffff0000000036ac <ui2a>
ffff000000003824:	d503201f 	nop
ffff000000003828:	a8c27bfd 	ldp	x29, x30, [sp],#32
ffff00000000382c:	d65f03c0 	ret

ffff000000003830 <a2d>:
ffff000000003830:	d10043ff 	sub	sp, sp, #0x10
ffff000000003834:	39003fe0 	strb	w0, [sp,#15]
ffff000000003838:	39403fe0 	ldrb	w0, [sp,#15]
ffff00000000383c:	7100bc1f 	cmp	w0, #0x2f
ffff000000003840:	540000e9 	b.ls	ffff00000000385c <a2d+0x2c>
ffff000000003844:	39403fe0 	ldrb	w0, [sp,#15]
ffff000000003848:	7100e41f 	cmp	w0, #0x39
ffff00000000384c:	54000088 	b.hi	ffff00000000385c <a2d+0x2c>
ffff000000003850:	39403fe0 	ldrb	w0, [sp,#15]
ffff000000003854:	5100c000 	sub	w0, w0, #0x30
ffff000000003858:	14000014 	b	ffff0000000038a8 <a2d+0x78>
ffff00000000385c:	39403fe0 	ldrb	w0, [sp,#15]
ffff000000003860:	7101801f 	cmp	w0, #0x60
ffff000000003864:	540000e9 	b.ls	ffff000000003880 <a2d+0x50>
ffff000000003868:	39403fe0 	ldrb	w0, [sp,#15]
ffff00000000386c:	7101981f 	cmp	w0, #0x66
ffff000000003870:	54000088 	b.hi	ffff000000003880 <a2d+0x50>
ffff000000003874:	39403fe0 	ldrb	w0, [sp,#15]
ffff000000003878:	51015c00 	sub	w0, w0, #0x57
ffff00000000387c:	1400000b 	b	ffff0000000038a8 <a2d+0x78>
ffff000000003880:	39403fe0 	ldrb	w0, [sp,#15]
ffff000000003884:	7101001f 	cmp	w0, #0x40
ffff000000003888:	540000e9 	b.ls	ffff0000000038a4 <a2d+0x74>
ffff00000000388c:	39403fe0 	ldrb	w0, [sp,#15]
ffff000000003890:	7101181f 	cmp	w0, #0x46
ffff000000003894:	54000088 	b.hi	ffff0000000038a4 <a2d+0x74>
ffff000000003898:	39403fe0 	ldrb	w0, [sp,#15]
ffff00000000389c:	5100dc00 	sub	w0, w0, #0x37
ffff0000000038a0:	14000002 	b	ffff0000000038a8 <a2d+0x78>
ffff0000000038a4:	12800000 	mov	w0, #0xffffffff            	// #-1
ffff0000000038a8:	910043ff 	add	sp, sp, #0x10
ffff0000000038ac:	d65f03c0 	ret

ffff0000000038b0 <a2i>:
ffff0000000038b0:	a9bc7bfd 	stp	x29, x30, [sp,#-64]!
ffff0000000038b4:	910003fd 	mov	x29, sp
ffff0000000038b8:	3900bfa0 	strb	w0, [x29,#47]
ffff0000000038bc:	f90013a1 	str	x1, [x29,#32]
ffff0000000038c0:	b9002ba2 	str	w2, [x29,#40]
ffff0000000038c4:	f9000fa3 	str	x3, [x29,#24]
ffff0000000038c8:	f94013a0 	ldr	x0, [x29,#32]
ffff0000000038cc:	f9400000 	ldr	x0, [x0]
ffff0000000038d0:	f9001fa0 	str	x0, [x29,#56]
ffff0000000038d4:	b90037bf 	str	wzr, [x29,#52]
ffff0000000038d8:	14000010 	b	ffff000000003918 <a2i+0x68>
ffff0000000038dc:	b94033a1 	ldr	w1, [x29,#48]
ffff0000000038e0:	b9402ba0 	ldr	w0, [x29,#40]
ffff0000000038e4:	6b00003f 	cmp	w1, w0
ffff0000000038e8:	5400026c 	b.gt	ffff000000003934 <a2i+0x84>
ffff0000000038ec:	b94037a1 	ldr	w1, [x29,#52]
ffff0000000038f0:	b9402ba0 	ldr	w0, [x29,#40]
ffff0000000038f4:	1b007c21 	mul	w1, w1, w0
ffff0000000038f8:	b94033a0 	ldr	w0, [x29,#48]
ffff0000000038fc:	0b000020 	add	w0, w1, w0
ffff000000003900:	b90037a0 	str	w0, [x29,#52]
ffff000000003904:	f9401fa0 	ldr	x0, [x29,#56]
ffff000000003908:	91000401 	add	x1, x0, #0x1
ffff00000000390c:	f9001fa1 	str	x1, [x29,#56]
ffff000000003910:	39400000 	ldrb	w0, [x0]
ffff000000003914:	3900bfa0 	strb	w0, [x29,#47]
ffff000000003918:	3940bfa0 	ldrb	w0, [x29,#47]
ffff00000000391c:	97ffffc5 	bl	ffff000000003830 <a2d>
ffff000000003920:	b90033a0 	str	w0, [x29,#48]
ffff000000003924:	b94033a0 	ldr	w0, [x29,#48]
ffff000000003928:	7100001f 	cmp	w0, #0x0
ffff00000000392c:	54fffd8a 	b.ge	ffff0000000038dc <a2i+0x2c>
ffff000000003930:	14000002 	b	ffff000000003938 <a2i+0x88>
ffff000000003934:	d503201f 	nop
ffff000000003938:	f94013a0 	ldr	x0, [x29,#32]
ffff00000000393c:	f9401fa1 	ldr	x1, [x29,#56]
ffff000000003940:	f9000001 	str	x1, [x0]
ffff000000003944:	f9400fa0 	ldr	x0, [x29,#24]
ffff000000003948:	b94037a1 	ldr	w1, [x29,#52]
ffff00000000394c:	b9000001 	str	w1, [x0]
ffff000000003950:	3940bfa0 	ldrb	w0, [x29,#47]
ffff000000003954:	a8c47bfd 	ldp	x29, x30, [sp],#64
ffff000000003958:	d65f03c0 	ret

ffff00000000395c <putchw>:
ffff00000000395c:	a9bc7bfd 	stp	x29, x30, [sp,#-64]!
ffff000000003960:	910003fd 	mov	x29, sp
ffff000000003964:	f90017a0 	str	x0, [x29,#40]
ffff000000003968:	f90013a1 	str	x1, [x29,#32]
ffff00000000396c:	b9001fa2 	str	w2, [x29,#28]
ffff000000003970:	39006fa3 	strb	w3, [x29,#27]
ffff000000003974:	f9000ba4 	str	x4, [x29,#16]
ffff000000003978:	39406fa0 	ldrb	w0, [x29,#27]
ffff00000000397c:	7100001f 	cmp	w0, #0x0
ffff000000003980:	54000060 	b.eq	ffff00000000398c <putchw+0x30>
ffff000000003984:	52800600 	mov	w0, #0x30                  	// #48
ffff000000003988:	14000002 	b	ffff000000003990 <putchw+0x34>
ffff00000000398c:	52800400 	mov	w0, #0x20                  	// #32
ffff000000003990:	3900dfa0 	strb	w0, [x29,#55]
ffff000000003994:	f9400ba0 	ldr	x0, [x29,#16]
ffff000000003998:	f9001fa0 	str	x0, [x29,#56]
ffff00000000399c:	14000004 	b	ffff0000000039ac <putchw+0x50>
ffff0000000039a0:	b9401fa0 	ldr	w0, [x29,#28]
ffff0000000039a4:	51000400 	sub	w0, w0, #0x1
ffff0000000039a8:	b9001fa0 	str	w0, [x29,#28]
ffff0000000039ac:	f9401fa0 	ldr	x0, [x29,#56]
ffff0000000039b0:	91000401 	add	x1, x0, #0x1
ffff0000000039b4:	f9001fa1 	str	x1, [x29,#56]
ffff0000000039b8:	39400000 	ldrb	w0, [x0]
ffff0000000039bc:	7100001f 	cmp	w0, #0x0
ffff0000000039c0:	54000120 	b.eq	ffff0000000039e4 <putchw+0x88>
ffff0000000039c4:	b9401fa0 	ldr	w0, [x29,#28]
ffff0000000039c8:	7100001f 	cmp	w0, #0x0
ffff0000000039cc:	54fffeac 	b.gt	ffff0000000039a0 <putchw+0x44>
ffff0000000039d0:	14000005 	b	ffff0000000039e4 <putchw+0x88>
ffff0000000039d4:	f94013a2 	ldr	x2, [x29,#32]
ffff0000000039d8:	3940dfa1 	ldrb	w1, [x29,#55]
ffff0000000039dc:	f94017a0 	ldr	x0, [x29,#40]
ffff0000000039e0:	d63f0040 	blr	x2
ffff0000000039e4:	b9401fa0 	ldr	w0, [x29,#28]
ffff0000000039e8:	51000401 	sub	w1, w0, #0x1
ffff0000000039ec:	b9001fa1 	str	w1, [x29,#28]
ffff0000000039f0:	7100001f 	cmp	w0, #0x0
ffff0000000039f4:	54ffff0c 	b.gt	ffff0000000039d4 <putchw+0x78>
ffff0000000039f8:	14000005 	b	ffff000000003a0c <putchw+0xb0>
ffff0000000039fc:	f94013a2 	ldr	x2, [x29,#32]
ffff000000003a00:	3940dba1 	ldrb	w1, [x29,#54]
ffff000000003a04:	f94017a0 	ldr	x0, [x29,#40]
ffff000000003a08:	d63f0040 	blr	x2
ffff000000003a0c:	f9400ba0 	ldr	x0, [x29,#16]
ffff000000003a10:	91000401 	add	x1, x0, #0x1
ffff000000003a14:	f9000ba1 	str	x1, [x29,#16]
ffff000000003a18:	39400000 	ldrb	w0, [x0]
ffff000000003a1c:	3900dba0 	strb	w0, [x29,#54]
ffff000000003a20:	3940dba0 	ldrb	w0, [x29,#54]
ffff000000003a24:	7100001f 	cmp	w0, #0x0
ffff000000003a28:	54fffea1 	b.ne	ffff0000000039fc <putchw+0xa0>
ffff000000003a2c:	d503201f 	nop
ffff000000003a30:	a8c47bfd 	ldp	x29, x30, [sp],#64
ffff000000003a34:	d65f03c0 	ret

ffff000000003a38 <tfp_format>:
ffff000000003a38:	a9ba7bfd 	stp	x29, x30, [sp,#-96]!
ffff000000003a3c:	910003fd 	mov	x29, sp
ffff000000003a40:	f9000bf3 	str	x19, [sp,#16]
ffff000000003a44:	f9001fa0 	str	x0, [x29,#56]
ffff000000003a48:	f9001ba1 	str	x1, [x29,#48]
ffff000000003a4c:	f90017a2 	str	x2, [x29,#40]
ffff000000003a50:	aa0303f3 	mov	x19, x3
ffff000000003a54:	140000fd 	b	ffff000000003e48 <tfp_format+0x410>
ffff000000003a58:	39417fa0 	ldrb	w0, [x29,#95]
ffff000000003a5c:	7100941f 	cmp	w0, #0x25
ffff000000003a60:	540000c0 	b.eq	ffff000000003a78 <tfp_format+0x40>
ffff000000003a64:	f9401ba2 	ldr	x2, [x29,#48]
ffff000000003a68:	39417fa1 	ldrb	w1, [x29,#95]
ffff000000003a6c:	f9401fa0 	ldr	x0, [x29,#56]
ffff000000003a70:	d63f0040 	blr	x2
ffff000000003a74:	140000f5 	b	ffff000000003e48 <tfp_format+0x410>
ffff000000003a78:	39017bbf 	strb	wzr, [x29,#94]
ffff000000003a7c:	b9004fbf 	str	wzr, [x29,#76]
ffff000000003a80:	f94017a0 	ldr	x0, [x29,#40]
ffff000000003a84:	91000401 	add	x1, x0, #0x1
ffff000000003a88:	f90017a1 	str	x1, [x29,#40]
ffff000000003a8c:	39400000 	ldrb	w0, [x0]
ffff000000003a90:	39017fa0 	strb	w0, [x29,#95]
ffff000000003a94:	39417fa0 	ldrb	w0, [x29,#95]
ffff000000003a98:	7100c01f 	cmp	w0, #0x30
ffff000000003a9c:	54000101 	b.ne	ffff000000003abc <tfp_format+0x84>
ffff000000003aa0:	f94017a0 	ldr	x0, [x29,#40]
ffff000000003aa4:	91000401 	add	x1, x0, #0x1
ffff000000003aa8:	f90017a1 	str	x1, [x29,#40]
ffff000000003aac:	39400000 	ldrb	w0, [x0]
ffff000000003ab0:	39017fa0 	strb	w0, [x29,#95]
ffff000000003ab4:	52800020 	mov	w0, #0x1                   	// #1
ffff000000003ab8:	39017ba0 	strb	w0, [x29,#94]
ffff000000003abc:	39417fa0 	ldrb	w0, [x29,#95]
ffff000000003ac0:	7100bc1f 	cmp	w0, #0x2f
ffff000000003ac4:	54000189 	b.ls	ffff000000003af4 <tfp_format+0xbc>
ffff000000003ac8:	39417fa0 	ldrb	w0, [x29,#95]
ffff000000003acc:	7100e41f 	cmp	w0, #0x39
ffff000000003ad0:	54000128 	b.hi	ffff000000003af4 <tfp_format+0xbc>
ffff000000003ad4:	910133a1 	add	x1, x29, #0x4c
ffff000000003ad8:	9100a3a0 	add	x0, x29, #0x28
ffff000000003adc:	aa0103e3 	mov	x3, x1
ffff000000003ae0:	52800142 	mov	w2, #0xa                   	// #10
ffff000000003ae4:	aa0003e1 	mov	x1, x0
ffff000000003ae8:	39417fa0 	ldrb	w0, [x29,#95]
ffff000000003aec:	97ffff71 	bl	ffff0000000038b0 <a2i>
ffff000000003af0:	39017fa0 	strb	w0, [x29,#95]
ffff000000003af4:	39417fa0 	ldrb	w0, [x29,#95]
ffff000000003af8:	71018c1f 	cmp	w0, #0x63
ffff000000003afc:	540011c0 	b.eq	ffff000000003d34 <tfp_format+0x2fc>
ffff000000003b00:	71018c1f 	cmp	w0, #0x63
ffff000000003b04:	5400010c 	b.gt	ffff000000003b24 <tfp_format+0xec>
ffff000000003b08:	7100941f 	cmp	w0, #0x25
ffff000000003b0c:	54001940 	b.eq	ffff000000003e34 <tfp_format+0x3fc>
ffff000000003b10:	7101601f 	cmp	w0, #0x58
ffff000000003b14:	54000b60 	b.eq	ffff000000003c80 <tfp_format+0x248>
ffff000000003b18:	7100001f 	cmp	w0, #0x0
ffff000000003b1c:	54001a80 	b.eq	ffff000000003e6c <tfp_format+0x434>
ffff000000003b20:	140000c9 	b	ffff000000003e44 <tfp_format+0x40c>
ffff000000003b24:	7101cc1f 	cmp	w0, #0x73
ffff000000003b28:	54001440 	b.eq	ffff000000003db0 <tfp_format+0x378>
ffff000000003b2c:	7101cc1f 	cmp	w0, #0x73
ffff000000003b30:	5400008c 	b.gt	ffff000000003b40 <tfp_format+0x108>
ffff000000003b34:	7101901f 	cmp	w0, #0x64
ffff000000003b38:	540005c0 	b.eq	ffff000000003bf0 <tfp_format+0x1b8>
ffff000000003b3c:	140000c2 	b	ffff000000003e44 <tfp_format+0x40c>
ffff000000003b40:	7101d41f 	cmp	w0, #0x75
ffff000000003b44:	54000080 	b.eq	ffff000000003b54 <tfp_format+0x11c>
ffff000000003b48:	7101e01f 	cmp	w0, #0x78
ffff000000003b4c:	540009a0 	b.eq	ffff000000003c80 <tfp_format+0x248>
ffff000000003b50:	140000bd 	b	ffff000000003e44 <tfp_format+0x40c>
ffff000000003b54:	b9401a60 	ldr	w0, [x19,#24]
ffff000000003b58:	f9400261 	ldr	x1, [x19]
ffff000000003b5c:	7100001f 	cmp	w0, #0x0
ffff000000003b60:	540000eb 	b.lt	ffff000000003b7c <tfp_format+0x144>
ffff000000003b64:	aa0103e0 	mov	x0, x1
ffff000000003b68:	91002c00 	add	x0, x0, #0xb
ffff000000003b6c:	927df000 	and	x0, x0, #0xfffffffffffffff8
ffff000000003b70:	f9000260 	str	x0, [x19]
ffff000000003b74:	aa0103e0 	mov	x0, x1
ffff000000003b78:	1400000f 	b	ffff000000003bb4 <tfp_format+0x17c>
ffff000000003b7c:	11002002 	add	w2, w0, #0x8
ffff000000003b80:	b9001a62 	str	w2, [x19,#24]
ffff000000003b84:	b9401a62 	ldr	w2, [x19,#24]
ffff000000003b88:	7100005f 	cmp	w2, #0x0
ffff000000003b8c:	540000ed 	b.le	ffff000000003ba8 <tfp_format+0x170>
ffff000000003b90:	aa0103e0 	mov	x0, x1
ffff000000003b94:	91002c00 	add	x0, x0, #0xb
ffff000000003b98:	927df000 	and	x0, x0, #0xfffffffffffffff8
ffff000000003b9c:	f9000260 	str	x0, [x19]
ffff000000003ba0:	aa0103e0 	mov	x0, x1
ffff000000003ba4:	14000004 	b	ffff000000003bb4 <tfp_format+0x17c>
ffff000000003ba8:	f9400661 	ldr	x1, [x19,#8]
ffff000000003bac:	93407c00 	sxtw	x0, w0
ffff000000003bb0:	8b000020 	add	x0, x1, x0
ffff000000003bb4:	b9400000 	ldr	w0, [x0]
ffff000000003bb8:	910143a1 	add	x1, x29, #0x50
ffff000000003bbc:	aa0103e3 	mov	x3, x1
ffff000000003bc0:	52800002 	mov	w2, #0x0                   	// #0
ffff000000003bc4:	52800141 	mov	w1, #0xa                   	// #10
ffff000000003bc8:	97fffeb9 	bl	ffff0000000036ac <ui2a>
ffff000000003bcc:	b9404fa0 	ldr	w0, [x29,#76]
ffff000000003bd0:	910143a1 	add	x1, x29, #0x50
ffff000000003bd4:	aa0103e4 	mov	x4, x1
ffff000000003bd8:	39417ba3 	ldrb	w3, [x29,#94]
ffff000000003bdc:	2a0003e2 	mov	w2, w0
ffff000000003be0:	f9401ba1 	ldr	x1, [x29,#48]
ffff000000003be4:	f9401fa0 	ldr	x0, [x29,#56]
ffff000000003be8:	97ffff5d 	bl	ffff00000000395c <putchw>
ffff000000003bec:	14000097 	b	ffff000000003e48 <tfp_format+0x410>
ffff000000003bf0:	b9401a60 	ldr	w0, [x19,#24]
ffff000000003bf4:	f9400261 	ldr	x1, [x19]
ffff000000003bf8:	7100001f 	cmp	w0, #0x0
ffff000000003bfc:	540000eb 	b.lt	ffff000000003c18 <tfp_format+0x1e0>
ffff000000003c00:	aa0103e0 	mov	x0, x1
ffff000000003c04:	91002c00 	add	x0, x0, #0xb
ffff000000003c08:	927df000 	and	x0, x0, #0xfffffffffffffff8
ffff000000003c0c:	f9000260 	str	x0, [x19]
ffff000000003c10:	aa0103e0 	mov	x0, x1
ffff000000003c14:	1400000f 	b	ffff000000003c50 <tfp_format+0x218>
ffff000000003c18:	11002002 	add	w2, w0, #0x8
ffff000000003c1c:	b9001a62 	str	w2, [x19,#24]
ffff000000003c20:	b9401a62 	ldr	w2, [x19,#24]
ffff000000003c24:	7100005f 	cmp	w2, #0x0
ffff000000003c28:	540000ed 	b.le	ffff000000003c44 <tfp_format+0x20c>
ffff000000003c2c:	aa0103e0 	mov	x0, x1
ffff000000003c30:	91002c00 	add	x0, x0, #0xb
ffff000000003c34:	927df000 	and	x0, x0, #0xfffffffffffffff8
ffff000000003c38:	f9000260 	str	x0, [x19]
ffff000000003c3c:	aa0103e0 	mov	x0, x1
ffff000000003c40:	14000004 	b	ffff000000003c50 <tfp_format+0x218>
ffff000000003c44:	f9400661 	ldr	x1, [x19,#8]
ffff000000003c48:	93407c00 	sxtw	x0, w0
ffff000000003c4c:	8b000020 	add	x0, x1, x0
ffff000000003c50:	b9400000 	ldr	w0, [x0]
ffff000000003c54:	910143a1 	add	x1, x29, #0x50
ffff000000003c58:	97fffedf 	bl	ffff0000000037d4 <i2a>
ffff000000003c5c:	b9404fa0 	ldr	w0, [x29,#76]
ffff000000003c60:	910143a1 	add	x1, x29, #0x50
ffff000000003c64:	aa0103e4 	mov	x4, x1
ffff000000003c68:	39417ba3 	ldrb	w3, [x29,#94]
ffff000000003c6c:	2a0003e2 	mov	w2, w0
ffff000000003c70:	f9401ba1 	ldr	x1, [x29,#48]
ffff000000003c74:	f9401fa0 	ldr	x0, [x29,#56]
ffff000000003c78:	97ffff39 	bl	ffff00000000395c <putchw>
ffff000000003c7c:	14000073 	b	ffff000000003e48 <tfp_format+0x410>
ffff000000003c80:	b9401a60 	ldr	w0, [x19,#24]
ffff000000003c84:	f9400261 	ldr	x1, [x19]
ffff000000003c88:	7100001f 	cmp	w0, #0x0
ffff000000003c8c:	540000eb 	b.lt	ffff000000003ca8 <tfp_format+0x270>
ffff000000003c90:	aa0103e0 	mov	x0, x1
ffff000000003c94:	91002c00 	add	x0, x0, #0xb
ffff000000003c98:	927df000 	and	x0, x0, #0xfffffffffffffff8
ffff000000003c9c:	f9000260 	str	x0, [x19]
ffff000000003ca0:	aa0103e0 	mov	x0, x1
ffff000000003ca4:	1400000f 	b	ffff000000003ce0 <tfp_format+0x2a8>
ffff000000003ca8:	11002002 	add	w2, w0, #0x8
ffff000000003cac:	b9001a62 	str	w2, [x19,#24]
ffff000000003cb0:	b9401a62 	ldr	w2, [x19,#24]
ffff000000003cb4:	7100005f 	cmp	w2, #0x0
ffff000000003cb8:	540000ed 	b.le	ffff000000003cd4 <tfp_format+0x29c>
ffff000000003cbc:	aa0103e0 	mov	x0, x1
ffff000000003cc0:	91002c00 	add	x0, x0, #0xb
ffff000000003cc4:	927df000 	and	x0, x0, #0xfffffffffffffff8
ffff000000003cc8:	f9000260 	str	x0, [x19]
ffff000000003ccc:	aa0103e0 	mov	x0, x1
ffff000000003cd0:	14000004 	b	ffff000000003ce0 <tfp_format+0x2a8>
ffff000000003cd4:	f9400661 	ldr	x1, [x19,#8]
ffff000000003cd8:	93407c00 	sxtw	x0, w0
ffff000000003cdc:	8b000020 	add	x0, x1, x0
ffff000000003ce0:	b9400004 	ldr	w4, [x0]
ffff000000003ce4:	39417fa0 	ldrb	w0, [x29,#95]
ffff000000003ce8:	7101601f 	cmp	w0, #0x58
ffff000000003cec:	1a9f17e0 	cset	w0, eq
ffff000000003cf0:	53001c00 	uxtb	w0, w0
ffff000000003cf4:	2a0003e1 	mov	w1, w0
ffff000000003cf8:	910143a0 	add	x0, x29, #0x50
ffff000000003cfc:	aa0003e3 	mov	x3, x0
ffff000000003d00:	2a0103e2 	mov	w2, w1
ffff000000003d04:	52800201 	mov	w1, #0x10                  	// #16
ffff000000003d08:	2a0403e0 	mov	w0, w4
ffff000000003d0c:	97fffe68 	bl	ffff0000000036ac <ui2a>
ffff000000003d10:	b9404fa0 	ldr	w0, [x29,#76]
ffff000000003d14:	910143a1 	add	x1, x29, #0x50
ffff000000003d18:	aa0103e4 	mov	x4, x1
ffff000000003d1c:	39417ba3 	ldrb	w3, [x29,#94]
ffff000000003d20:	2a0003e2 	mov	w2, w0
ffff000000003d24:	f9401ba1 	ldr	x1, [x29,#48]
ffff000000003d28:	f9401fa0 	ldr	x0, [x29,#56]
ffff000000003d2c:	97ffff0c 	bl	ffff00000000395c <putchw>
ffff000000003d30:	14000046 	b	ffff000000003e48 <tfp_format+0x410>
ffff000000003d34:	b9401a60 	ldr	w0, [x19,#24]
ffff000000003d38:	f9400261 	ldr	x1, [x19]
ffff000000003d3c:	7100001f 	cmp	w0, #0x0
ffff000000003d40:	540000eb 	b.lt	ffff000000003d5c <tfp_format+0x324>
ffff000000003d44:	aa0103e0 	mov	x0, x1
ffff000000003d48:	91002c00 	add	x0, x0, #0xb
ffff000000003d4c:	927df000 	and	x0, x0, #0xfffffffffffffff8
ffff000000003d50:	f9000260 	str	x0, [x19]
ffff000000003d54:	aa0103e0 	mov	x0, x1
ffff000000003d58:	1400000f 	b	ffff000000003d94 <tfp_format+0x35c>
ffff000000003d5c:	11002002 	add	w2, w0, #0x8
ffff000000003d60:	b9001a62 	str	w2, [x19,#24]
ffff000000003d64:	b9401a62 	ldr	w2, [x19,#24]
ffff000000003d68:	7100005f 	cmp	w2, #0x0
ffff000000003d6c:	540000ed 	b.le	ffff000000003d88 <tfp_format+0x350>
ffff000000003d70:	aa0103e0 	mov	x0, x1
ffff000000003d74:	91002c00 	add	x0, x0, #0xb
ffff000000003d78:	927df000 	and	x0, x0, #0xfffffffffffffff8
ffff000000003d7c:	f9000260 	str	x0, [x19]
ffff000000003d80:	aa0103e0 	mov	x0, x1
ffff000000003d84:	14000004 	b	ffff000000003d94 <tfp_format+0x35c>
ffff000000003d88:	f9400661 	ldr	x1, [x19,#8]
ffff000000003d8c:	93407c00 	sxtw	x0, w0
ffff000000003d90:	8b000020 	add	x0, x1, x0
ffff000000003d94:	b9400000 	ldr	w0, [x0]
ffff000000003d98:	53001c00 	uxtb	w0, w0
ffff000000003d9c:	f9401ba2 	ldr	x2, [x29,#48]
ffff000000003da0:	2a0003e1 	mov	w1, w0
ffff000000003da4:	f9401fa0 	ldr	x0, [x29,#56]
ffff000000003da8:	d63f0040 	blr	x2
ffff000000003dac:	14000027 	b	ffff000000003e48 <tfp_format+0x410>
ffff000000003db0:	b9404fa5 	ldr	w5, [x29,#76]
ffff000000003db4:	b9401a60 	ldr	w0, [x19,#24]
ffff000000003db8:	f9400261 	ldr	x1, [x19]
ffff000000003dbc:	7100001f 	cmp	w0, #0x0
ffff000000003dc0:	540000eb 	b.lt	ffff000000003ddc <tfp_format+0x3a4>
ffff000000003dc4:	aa0103e0 	mov	x0, x1
ffff000000003dc8:	91003c00 	add	x0, x0, #0xf
ffff000000003dcc:	927df000 	and	x0, x0, #0xfffffffffffffff8
ffff000000003dd0:	f9000260 	str	x0, [x19]
ffff000000003dd4:	aa0103e0 	mov	x0, x1
ffff000000003dd8:	1400000f 	b	ffff000000003e14 <tfp_format+0x3dc>
ffff000000003ddc:	11002002 	add	w2, w0, #0x8
ffff000000003de0:	b9001a62 	str	w2, [x19,#24]
ffff000000003de4:	b9401a62 	ldr	w2, [x19,#24]
ffff000000003de8:	7100005f 	cmp	w2, #0x0
ffff000000003dec:	540000ed 	b.le	ffff000000003e08 <tfp_format+0x3d0>
ffff000000003df0:	aa0103e0 	mov	x0, x1
ffff000000003df4:	91003c00 	add	x0, x0, #0xf
ffff000000003df8:	927df000 	and	x0, x0, #0xfffffffffffffff8
ffff000000003dfc:	f9000260 	str	x0, [x19]
ffff000000003e00:	aa0103e0 	mov	x0, x1
ffff000000003e04:	14000004 	b	ffff000000003e14 <tfp_format+0x3dc>
ffff000000003e08:	f9400661 	ldr	x1, [x19,#8]
ffff000000003e0c:	93407c00 	sxtw	x0, w0
ffff000000003e10:	8b000020 	add	x0, x1, x0
ffff000000003e14:	f9400000 	ldr	x0, [x0]
ffff000000003e18:	aa0003e4 	mov	x4, x0
ffff000000003e1c:	52800003 	mov	w3, #0x0                   	// #0
ffff000000003e20:	2a0503e2 	mov	w2, w5
ffff000000003e24:	f9401ba1 	ldr	x1, [x29,#48]
ffff000000003e28:	f9401fa0 	ldr	x0, [x29,#56]
ffff000000003e2c:	97fffecc 	bl	ffff00000000395c <putchw>
ffff000000003e30:	14000006 	b	ffff000000003e48 <tfp_format+0x410>
ffff000000003e34:	f9401ba2 	ldr	x2, [x29,#48]
ffff000000003e38:	39417fa1 	ldrb	w1, [x29,#95]
ffff000000003e3c:	f9401fa0 	ldr	x0, [x29,#56]
ffff000000003e40:	d63f0040 	blr	x2
ffff000000003e44:	d503201f 	nop
ffff000000003e48:	f94017a0 	ldr	x0, [x29,#40]
ffff000000003e4c:	91000401 	add	x1, x0, #0x1
ffff000000003e50:	f90017a1 	str	x1, [x29,#40]
ffff000000003e54:	39400000 	ldrb	w0, [x0]
ffff000000003e58:	39017fa0 	strb	w0, [x29,#95]
ffff000000003e5c:	39417fa0 	ldrb	w0, [x29,#95]
ffff000000003e60:	7100001f 	cmp	w0, #0x0
ffff000000003e64:	54ffdfa1 	b.ne	ffff000000003a58 <tfp_format+0x20>
ffff000000003e68:	14000002 	b	ffff000000003e70 <tfp_format+0x438>
ffff000000003e6c:	d503201f 	nop
ffff000000003e70:	d503201f 	nop
ffff000000003e74:	f9400bf3 	ldr	x19, [sp,#16]
ffff000000003e78:	a8c67bfd 	ldp	x29, x30, [sp],#96
ffff000000003e7c:	d65f03c0 	ret

ffff000000003e80 <init_printf>:
ffff000000003e80:	d10043ff 	sub	sp, sp, #0x10
ffff000000003e84:	f90007e0 	str	x0, [sp,#8]
ffff000000003e88:	f90003e1 	str	x1, [sp]
ffff000000003e8c:	d0000040 	adrp	x0, ffff00000000d000 <mem_map+0x2df0>
ffff000000003e90:	91386000 	add	x0, x0, #0xe18
ffff000000003e94:	f94003e1 	ldr	x1, [sp]
ffff000000003e98:	f9000001 	str	x1, [x0]
ffff000000003e9c:	d0000040 	adrp	x0, ffff00000000d000 <mem_map+0x2df0>
ffff000000003ea0:	91388000 	add	x0, x0, #0xe20
ffff000000003ea4:	f94007e1 	ldr	x1, [sp,#8]
ffff000000003ea8:	f9000001 	str	x1, [x0]
ffff000000003eac:	d503201f 	nop
ffff000000003eb0:	910043ff 	add	sp, sp, #0x10
ffff000000003eb4:	d65f03c0 	ret

ffff000000003eb8 <tfp_printf>:
ffff000000003eb8:	a9b67bfd 	stp	x29, x30, [sp,#-160]!
ffff000000003ebc:	910003fd 	mov	x29, sp
ffff000000003ec0:	f9001fa0 	str	x0, [x29,#56]
ffff000000003ec4:	f90037a1 	str	x1, [x29,#104]
ffff000000003ec8:	f9003ba2 	str	x2, [x29,#112]
ffff000000003ecc:	f9003fa3 	str	x3, [x29,#120]
ffff000000003ed0:	f90043a4 	str	x4, [x29,#128]
ffff000000003ed4:	f90047a5 	str	x5, [x29,#136]
ffff000000003ed8:	f9004ba6 	str	x6, [x29,#144]
ffff000000003edc:	f9004fa7 	str	x7, [x29,#152]
ffff000000003ee0:	910283a0 	add	x0, x29, #0xa0
ffff000000003ee4:	f90023a0 	str	x0, [x29,#64]
ffff000000003ee8:	910283a0 	add	x0, x29, #0xa0
ffff000000003eec:	f90027a0 	str	x0, [x29,#72]
ffff000000003ef0:	910183a0 	add	x0, x29, #0x60
ffff000000003ef4:	f9002ba0 	str	x0, [x29,#80]
ffff000000003ef8:	128006e0 	mov	w0, #0xffffffc8            	// #-56
ffff000000003efc:	b9005ba0 	str	w0, [x29,#88]
ffff000000003f00:	b9005fbf 	str	wzr, [x29,#92]
ffff000000003f04:	d0000040 	adrp	x0, ffff00000000d000 <mem_map+0x2df0>
ffff000000003f08:	91388000 	add	x0, x0, #0xe20
ffff000000003f0c:	f9400004 	ldr	x4, [x0]
ffff000000003f10:	d0000040 	adrp	x0, ffff00000000d000 <mem_map+0x2df0>
ffff000000003f14:	91386000 	add	x0, x0, #0xe18
ffff000000003f18:	f9400005 	ldr	x5, [x0]
ffff000000003f1c:	910043a2 	add	x2, x29, #0x10
ffff000000003f20:	910103a3 	add	x3, x29, #0x40
ffff000000003f24:	a9400460 	ldp	x0, x1, [x3]
ffff000000003f28:	a9000440 	stp	x0, x1, [x2]
ffff000000003f2c:	a9410460 	ldp	x0, x1, [x3,#16]
ffff000000003f30:	a9010440 	stp	x0, x1, [x2,#16]
ffff000000003f34:	910043a0 	add	x0, x29, #0x10
ffff000000003f38:	aa0003e3 	mov	x3, x0
ffff000000003f3c:	f9401fa2 	ldr	x2, [x29,#56]
ffff000000003f40:	aa0503e1 	mov	x1, x5
ffff000000003f44:	aa0403e0 	mov	x0, x4
ffff000000003f48:	97fffebc 	bl	ffff000000003a38 <tfp_format>
ffff000000003f4c:	d503201f 	nop
ffff000000003f50:	a8ca7bfd 	ldp	x29, x30, [sp],#160
ffff000000003f54:	d65f03c0 	ret

ffff000000003f58 <putcp>:
ffff000000003f58:	d10043ff 	sub	sp, sp, #0x10
ffff000000003f5c:	f90007e0 	str	x0, [sp,#8]
ffff000000003f60:	39001fe1 	strb	w1, [sp,#7]
ffff000000003f64:	f94007e0 	ldr	x0, [sp,#8]
ffff000000003f68:	f9400000 	ldr	x0, [x0]
ffff000000003f6c:	91000402 	add	x2, x0, #0x1
ffff000000003f70:	f94007e1 	ldr	x1, [sp,#8]
ffff000000003f74:	f9000022 	str	x2, [x1]
ffff000000003f78:	39401fe1 	ldrb	w1, [sp,#7]
ffff000000003f7c:	39000001 	strb	w1, [x0]
ffff000000003f80:	d503201f 	nop
ffff000000003f84:	910043ff 	add	sp, sp, #0x10
ffff000000003f88:	d65f03c0 	ret

ffff000000003f8c <tfp_sprintf>:
ffff000000003f8c:	a9b77bfd 	stp	x29, x30, [sp,#-144]!
ffff000000003f90:	910003fd 	mov	x29, sp
ffff000000003f94:	f9001fa0 	str	x0, [x29,#56]
ffff000000003f98:	f9001ba1 	str	x1, [x29,#48]
ffff000000003f9c:	f90033a2 	str	x2, [x29,#96]
ffff000000003fa0:	f90037a3 	str	x3, [x29,#104]
ffff000000003fa4:	f9003ba4 	str	x4, [x29,#112]
ffff000000003fa8:	f9003fa5 	str	x5, [x29,#120]
ffff000000003fac:	f90043a6 	str	x6, [x29,#128]
ffff000000003fb0:	f90047a7 	str	x7, [x29,#136]
ffff000000003fb4:	910243a0 	add	x0, x29, #0x90
ffff000000003fb8:	f90023a0 	str	x0, [x29,#64]
ffff000000003fbc:	910243a0 	add	x0, x29, #0x90
ffff000000003fc0:	f90027a0 	str	x0, [x29,#72]
ffff000000003fc4:	910183a0 	add	x0, x29, #0x60
ffff000000003fc8:	f9002ba0 	str	x0, [x29,#80]
ffff000000003fcc:	128005e0 	mov	w0, #0xffffffd0            	// #-48
ffff000000003fd0:	b9005ba0 	str	w0, [x29,#88]
ffff000000003fd4:	b9005fbf 	str	wzr, [x29,#92]
ffff000000003fd8:	910043a2 	add	x2, x29, #0x10
ffff000000003fdc:	910103a3 	add	x3, x29, #0x40
ffff000000003fe0:	a9400460 	ldp	x0, x1, [x3]
ffff000000003fe4:	a9000440 	stp	x0, x1, [x2]
ffff000000003fe8:	a9410460 	ldp	x0, x1, [x3,#16]
ffff000000003fec:	a9010440 	stp	x0, x1, [x2,#16]
ffff000000003ff0:	910043a2 	add	x2, x29, #0x10
ffff000000003ff4:	90000000 	adrp	x0, ffff000000003000 <memset+0x44>
ffff000000003ff8:	913d6001 	add	x1, x0, #0xf58
ffff000000003ffc:	9100e3a0 	add	x0, x29, #0x38
ffff000000004000:	aa0203e3 	mov	x3, x2
ffff000000004004:	f9401ba2 	ldr	x2, [x29,#48]
ffff000000004008:	97fffe8c 	bl	ffff000000003a38 <tfp_format>
ffff00000000400c:	9100e3a0 	add	x0, x29, #0x38
ffff000000004010:	52800001 	mov	w1, #0x0                   	// #0
ffff000000004014:	97ffffd1 	bl	ffff000000003f58 <putcp>
ffff000000004018:	d503201f 	nop
ffff00000000401c:	a8c97bfd 	ldp	x29, x30, [sp],#144
ffff000000004020:	d65f03c0 	ret
